 8049400:	8d 4c 24 04          	lea    0x4(%esp),%ecx
 8049404:	83 e4 f0             	and    $0xfffffff0,%esp
 8049407:	ff 71 fc             	pushl  -0x4(%ecx)
 804940a:	55                   	push   %ebp
 804940b:	89 e5                	mov    %esp,%ebp
 804940d:	57                   	push   %edi
 804940e:	56                   	push   %esi
 804940f:	53                   	push   %ebx
 8049410:	51                   	push   %ecx
 8049411:	e8 2a 0b 00 00       	call   8049f40 
 8049416:	81 c3 ea ab 00 00    	add    $0xabea,%ebx
 804941c:	81 ec 44 01 00 00    	sub    $0x144,%esp
 8049422:	8b 79 04             	mov    0x4(%ecx),%edi
 8049425:	8b 01                	mov    (%ecx),%eax
 8049427:	ff 37                	pushl  (%edi)
 8049429:	89 85 e8 fe ff ff    	mov    %eax,-0x118(%ebp)
 804942f:	e8 6c 24 00 00       	call   804b8a0 
 8049434:	5e                   	pop    %esi
 8049435:	58                   	pop    %eax
 8049436:	8d 83 c1 b8 ff ff    	lea    -0x473f(%ebx),%eax
 804943c:	8d b3 f4 ac ff ff    	lea    -0x530c(%ebx),%esi
 8049442:	50                   	push   %eax
 8049443:	6a 06                	push   $0x6
 8049445:	e8 c6 fe ff ff       	call   8049310 
 804944a:	58                   	pop    %eax
 804944b:	8d 83 02 ad ff ff    	lea    -0x52fe(%ebx),%eax
 8049451:	5a                   	pop    %edx
 8049452:	50                   	push   %eax
 8049453:	56                   	push   %esi
 8049454:	e8 17 ff ff ff       	call   8049370 
 8049459:	89 34 24             	mov    %esi,(%esp)
 804945c:	8d b3 2f ad ff ff    	lea    -0x52d1(%ebx),%esi
 8049462:	e8 59 fc ff ff       	call   80490c0 
 8049467:	59                   	pop    %ecx
 8049468:	ff b3 c0 ff ff ff    	pushl  -0x40(%ebx)
 804946e:	e8 6d 57 00 00       	call   804ebe0 
 8049473:	8b 83 d0 ff ff ff    	mov    -0x30(%ebx),%eax
 8049479:	6a 00                	push   $0x0
 804947b:	6a 01                	push   $0x1
 804947d:	6a 00                	push   $0x0
 804947f:	ff 30                	pushl  (%eax)
 8049481:	89 85 d8 fe ff ff    	mov    %eax,-0x128(%ebp)
 8049487:	e8 e4 fd ff ff       	call   8049270 
 804948c:	8d 83 00 fe ff ff    	lea    -0x200(%ebx),%eax
 8049492:	c6 83 b5 01 00 00 00 	movb   $0x0,0x1b5(%ebx)
 8049499:	c6 83 b6 01 00 00 00 	movb   $0x0,0x1b6(%ebx)
 80494a0:	c6 83 b7 01 00 00 00 	movb   $0x0,0x1b7(%ebx)
 80494a7:	c6 83 b8 01 00 00 00 	movb   $0x0,0x1b8(%ebx)
 80494ae:	83 c4 20             	add    $0x20,%esp
 80494b1:	89 85 e0 fe ff ff    	mov    %eax,-0x120(%ebp)
 80494b7:	8b 83 e0 ff ff ff    	mov    -0x20(%ebx),%eax
 80494bd:	c6 83 b4 01 00 00 00 	movb   $0x0,0x1b4(%ebx)
 80494c4:	c7 83 c0 01 00 00 00 	movl   $0x0,0x1c0(%ebx)
 80494cb:	00 00 00 
 80494ce:	c7 83 c4 01 00 00 00 	movl   $0x0,0x1c4(%ebx)
 80494d5:	00 00 00 
 80494d8:	c7 83 c8 01 00 00 00 	movl   $0x0,0x1c8(%ebx)
 80494df:	00 00 00 
 80494e2:	c7 83 cc 01 00 00 00 	movl   $0x0,0x1cc(%ebx)
 80494e9:	00 00 00 
 80494ec:	c7 83 d0 01 00 00 00 	movl   $0x0,0x1d0(%ebx)
 80494f3:	00 00 00 
 80494f6:	c7 83 d4 01 00 00 00 	movl   $0x0,0x1d4(%ebx)
 80494fd:	00 00 00 
 8049500:	c7 83 d8 01 00 00 00 	movl   $0x0,0x1d8(%ebx)
 8049507:	00 00 00 
 804950a:	c7 83 dc 01 00 00 00 	movl   $0x0,0x1dc(%ebx)
 8049511:	00 00 00 
 8049514:	c7 83 e0 01 00 00 00 	movl   $0x0,0x1e0(%ebx)
 804951b:	00 00 00 
 804951e:	c7 83 e4 01 00 00 00 	movl   $0x0,0x1e4(%ebx)
 8049525:	00 00 00 
 8049528:	c7 85 dc fe ff ff 00 	movl   $0x0,-0x124(%ebp)
 804952f:	00 00 00 
 8049532:	89 85 d4 fe ff ff    	mov    %eax,-0x12c(%ebp)
 8049538:	83 ec 0c             	sub    $0xc,%esp
 804953b:	6a 00                	push   $0x0
 804953d:	ff b5 e0 fe ff ff    	pushl  -0x120(%ebp)
 8049543:	56                   	push   %esi
 8049544:	57                   	push   %edi
 8049545:	ff b5 e8 fe ff ff    	pushl  -0x118(%ebp)
 804954b:	e8 d0 fc ff ff       	call   8049220 
 8049550:	83 c4 20             	add    $0x20,%esp
 8049553:	83 f8 ff             	cmp    $0xffffffff,%eax
 8049556:	0f 84 d7 00 00 00    	je     8049633 
 804955c:	83 f8 63             	cmp    $0x63,%eax
 804955f:	0f 84 c2 00 00 00    	je     8049627 
 8049565:	7e 29                	jle    8049590 
 8049567:	83 f8 6d             	cmp    $0x6d,%eax
 804956a:	74 67                	je     80495d3 
 804956c:	7e 54                	jle    80495c2 
 804956e:	83 f8 77             	cmp    $0x77,%eax
 8049571:	74 43                	je     80495b6 
 8049573:	83 c0 80             	add    $0xffffff80,%eax
 8049576:	75 2b                	jne    80495a3 
 8049578:	8b 85 d4 fe ff ff    	mov    -0x12c(%ebp),%eax
 804957e:	8b 00                	mov    (%eax),%eax
 8049580:	89 85 dc fe ff ff    	mov    %eax,-0x124(%ebp)
 8049586:	eb b0                	jmp    8049538 
 8049588:	90                   	nop
 8049589:	8d b4 26 00 00 00 00 	lea    0x0(%esi,%eiz,1),%esi
 8049590:	3d 7e ff ff ff       	cmp    $0xffffff7e,%eax
 8049595:	74 48                	je     80495df 
 8049597:	83 f8 4c             	cmp    $0x4c,%eax
 804959a:	74 11                	je     80495ad 
 804959c:	3d 7d ff ff ff       	cmp    $0xffffff7d,%eax
 80495a1:	74 46                	je     80495e9 
 80495a3:	83 ec 0c             	sub    $0xc,%esp
 80495a6:	6a 01                	push   $0x1
 80495a8:	e8 73 19 00 00       	call   804af20 
 80495ad:	c6 83 b4 01 00 00 01 	movb   $0x1,0x1b4(%ebx)
 80495b4:	eb 82                	jmp    8049538 
 80495b6:	c6 83 b7 01 00 00 01 	movb   $0x1,0x1b7(%ebx)
 80495bd:	e9 76 ff ff ff       	jmp    8049538 
 80495c2:	83 f8 6c             	cmp    $0x6c,%eax
 80495c5:	75 dc                	jne    80495a3 
 80495c7:	c6 83 b8 01 00 00 01 	movb   $0x1,0x1b8(%ebx)
 80495ce:	e9 65 ff ff ff       	jmp    8049538 
 80495d3:	c6 83 b6 01 00 00 01 	movb   $0x1,0x1b6(%ebx)
 80495da:	e9 59 ff ff ff       	jmp    8049538 
 80495df:	83 ec 0c             	sub    $0xc,%esp
 80495e2:	6a 00                	push   $0x0
 80495e4:	e8 37 19 00 00       	call   804af20 
 80495e9:	8d 83 14 ad ff ff    	lea    -0x52ec(%ebx),%eax
 80495ef:	51                   	push   %ecx
 80495f0:	6a 00                	push   $0x0
 80495f2:	50                   	push   %eax
 80495f3:	8d 83 24 ad ff ff    	lea    -0x52dc(%ebx),%eax
 80495f9:	50                   	push   %eax
 80495fa:	8d 83 28 01 00 00    	lea    0x128(%ebx),%eax
 8049600:	ff 30                	pushl  (%eax)
 8049602:	8d 83 f0 ac ff ff    	lea    -0x5310(%ebx),%eax
 8049608:	50                   	push   %eax
 8049609:	8d 83 79 ac ff ff    	lea    -0x5387(%ebx),%eax
 804960f:	50                   	push   %eax
 8049610:	8b 85 d8 fe ff ff    	mov    -0x128(%ebp),%eax
 8049616:	ff 30                	pushl  (%eax)
 8049618:	e8 b3 44 00 00       	call   804dad0 
 804961d:	83 c4 14             	add    $0x14,%esp
 8049620:	6a 00                	push   $0x0
 8049622:	e8 b9 fb ff ff       	call   80491e0 
 8049627:	c6 83 b5 01 00 00 01 	movb   $0x1,0x1b5(%ebx)
 804962e:	e9 05 ff ff ff       	jmp    8049538 
 8049633:	80 bb b8 01 00 00 00 	cmpb   $0x0,0x1b8(%ebx)
 804963a:	75 39                	jne    8049675 
 804963c:	80 bb b7 01 00 00 00 	cmpb   $0x0,0x1b7(%ebx)
 8049643:	75 30                	jne    8049675 
 8049645:	80 bb b6 01 00 00 00 	cmpb   $0x0,0x1b6(%ebx)
 804964c:	75 27                	jne    8049675 
 804964e:	80 bb b5 01 00 00 00 	cmpb   $0x0,0x1b5(%ebx)
 8049655:	75 1e                	jne    8049675 
 8049657:	80 bb b4 01 00 00 00 	cmpb   $0x0,0x1b4(%ebx)
 804965e:	75 15                	jne    8049675 
 8049660:	c6 83 b5 01 00 00 01 	movb   $0x1,0x1b5(%ebx)
 8049667:	c6 83 b7 01 00 00 01 	movb   $0x1,0x1b7(%ebx)
 804966e:	c6 83 b8 01 00 00 01 	movb   $0x1,0x1b8(%ebx)
 8049675:	83 bd dc fe ff ff 00 	cmpl   $0x0,-0x124(%ebp)
 804967c:	8b 83 bc ff ff ff    	mov    -0x44(%ebx),%eax
 8049682:	8b 00                	mov    (%eax),%eax
 8049684:	0f 84 66 06 00 00    	je     8049cf0 
 804968a:	39 85 e8 fe ff ff    	cmp    %eax,-0x118(%ebp)
 8049690:	0f 8f 24 08 00 00    	jg     8049eba 
 8049696:	8b 85 dc fe ff ff    	mov    -0x124(%ebp),%eax
 804969c:	80 38 2d             	cmpb   $0x2d,(%eax)
 804969f:	0f 85 76 02 00 00    	jne    804991b 
 80496a5:	80 78 01 00          	cmpb   $0x0,0x1(%eax)
 80496a9:	0f 85 6c 02 00 00    	jne    804991b 
 80496af:	8b 83 cc ff ff ff    	mov    -0x34(%ebx),%eax
 80496b5:	8b 30                	mov    (%eax),%esi
 80496b7:	83 ec 0c             	sub    $0xc,%esp
 80496ba:	56                   	push   %esi
 80496bb:	e8 00 fc ff ff       	call   80492c0 
 80496c0:	8d 95 f8 fe ff ff    	lea    -0x108(%ebp),%edx
 80496c6:	83 c4 0c             	add    $0xc,%esp
 80496c9:	52                   	push   %edx
 80496ca:	50                   	push   %eax
 80496cb:	6a 03                	push   $0x3
 80496cd:	e8 2e fa ff ff       	call   8049100 
 80496d2:	83 c4 10             	add    $0x10,%esp
 80496d5:	85 c0                	test   %eax,%eax
 80496d7:	75 16                	jne    80496ef 
 80496d9:	8b 85 08 ff ff ff    	mov    -0xf8(%ebp),%eax
 80496df:	25 00 f0 00 00       	and    $0xf000,%eax
 80496e4:	3d 00 80 00 00       	cmp    $0x8000,%eax
 80496e9:	0f 84 8d 06 00 00    	je     8049d7c 
 80496ef:	83 ec 0c             	sub    $0xc,%esp
 80496f2:	56                   	push   %esi
 80496f3:	e8 98 1b 00 00       	call   804b290 
 80496f8:	83 c4 10             	add    $0x10,%esp
 80496fb:	89 85 e8 fe ff ff    	mov    %eax,-0x118(%ebp)
 8049701:	c6 85 bb fe ff ff 00 	movb   $0x0,-0x145(%ebp)
 8049708:	c7 85 e0 fe ff ff 00 	movl   $0x0,-0x120(%ebp)
 804970f:	00 00 00 
 8049712:	c7 85 d8 fe ff ff 00 	movl   $0x0,-0x128(%ebp)
 8049719:	00 00 00 
 804971c:	83 bd e8 fe ff ff 00 	cmpl   $0x0,-0x118(%ebp)
 8049723:	0f 84 0b 04 00 00    	je     8049b34 
 8049729:	83 bd d8 fe ff ff 00 	cmpl   $0x0,-0x128(%ebp)
 8049730:	0f 85 13 03 00 00    	jne    8049a49 
 8049736:	83 ec 0c             	sub    $0xc,%esp
 8049739:	be 01 00 00 00       	mov    $0x1,%esi
 804973e:	6a 64                	push   $0x64
 8049740:	e8 5b 44 00 00       	call   804dba0 
 8049745:	83 c4 10             	add    $0x10,%esp
 8049748:	89 85 cc fe ff ff    	mov    %eax,-0x134(%ebp)
 804974e:	c7 00 01 00 00 00    	movl   $0x1,(%eax)
 8049754:	8d 85 f8 fe ff ff    	lea    -0x108(%ebp),%eax
 804975a:	89 b3 b0 01 00 00    	mov    %esi,0x1b0(%ebx)
 8049760:	c7 85 e0 fe ff ff 00 	movl   $0x0,-0x120(%ebp)
 8049767:	00 00 00 
 804976a:	c6 85 d4 fe ff ff 01 	movb   $0x1,-0x12c(%ebp)
 8049771:	8b bd dc fe ff ff    	mov    -0x124(%ebp),%edi
 8049777:	89 85 d0 fe ff ff    	mov    %eax,-0x130(%ebp)
 804977d:	8d 83 79 ad ff ff    	lea    -0x5287(%ebx),%eax
 8049783:	89 85 c8 fe ff ff    	mov    %eax,-0x138(%ebp)
 8049789:	8d 83 81 b4 ff ff    	lea    -0x4b7f(%ebx),%eax
 804978f:	89 85 bc fe ff ff    	mov    %eax,-0x144(%ebp)
 8049795:	e9 ba 00 00 00       	jmp    8049854 
 804979a:	80 7f 01 00          	cmpb   $0x0,0x1(%edi)
 804979e:	0f 85 e2 00 00 00    	jne    8049886 
 80497a4:	80 38 2d             	cmpb   $0x2d,(%eax)
 80497a7:	0f 85 d9 00 00 00    	jne    8049886 
 80497ad:	80 78 01 00          	cmpb   $0x0,0x1(%eax)
 80497b1:	0f 85 cf 00 00 00    	jne    8049886 
 80497b7:	50                   	push   %eax
 80497b8:	50                   	push   %eax
 80497b9:	56                   	push   %esi
 80497ba:	6a 04                	push   $0x4
 80497bc:	e8 7f 36 00 00       	call   804ce40 
 80497c1:	89 85 d4 fe ff ff    	mov    %eax,-0x12c(%ebp)
 80497c7:	8d 83 24 b4 ff ff    	lea    -0x4bdc(%ebx),%eax
 80497cd:	83 c4 0c             	add    $0xc,%esp
 80497d0:	6a 05                	push   $0x5
 80497d2:	50                   	push   %eax
 80497d3:	6a 00                	push   $0x0
 80497d5:	e8 a6 f8 ff ff       	call   8049080 
 80497da:	8b 95 d4 fe ff ff    	mov    -0x12c(%ebp),%edx
 80497e0:	52                   	push   %edx
 80497e1:	50                   	push   %eax
 80497e2:	6a 00                	push   $0x0
 80497e4:	6a 00                	push   $0x0
 80497e6:	e8 65 f9 ff ff       	call   8049150 
 80497eb:	83 c4 20             	add    $0x20,%esp
 80497ee:	80 3e 00             	cmpb   $0x0,(%esi)
 80497f1:	75 53                	jne    8049846 
 80497f3:	83 ec 0c             	sub    $0xc,%esp
 80497f6:	ff b5 e8 fe ff ff    	pushl  -0x118(%ebp)
 80497fc:	e8 8f 1b 00 00       	call   804b390 
 8049801:	83 c4 0c             	add    $0xc,%esp
 8049804:	89 c6                	mov    %eax,%esi
 8049806:	6a 05                	push   $0x5
 8049808:	ff b5 c8 fe ff ff    	pushl  -0x138(%ebp)
 804980e:	6a 00                	push   $0x0
 8049810:	e8 6b f8 ff ff       	call   8049080 
 8049815:	83 c4 0c             	add    $0xc,%esp
 8049818:	89 85 d4 fe ff ff    	mov    %eax,-0x12c(%ebp)
 804981e:	57                   	push   %edi
 804981f:	6a 03                	push   $0x3
 8049821:	6a 00                	push   $0x0
 8049823:	e8 b8 37 00 00       	call   804cfe0 
 8049828:	5a                   	pop    %edx
 8049829:	8b 95 d4 fe ff ff    	mov    -0x12c(%ebp),%edx
 804982f:	59                   	pop    %ecx
 8049830:	52                   	push   %edx
 8049831:	56                   	push   %esi
 8049832:	50                   	push   %eax
 8049833:	8d 83 97 ad ff ff    	lea    -0x5269(%ebx),%eax
 8049839:	50                   	push   %eax
 804983a:	6a 00                	push   $0x0
 804983c:	6a 00                	push   $0x0
 804983e:	e8 0d f9 ff ff       	call   8049150 
 8049843:	83 c4 20             	add    $0x20,%esp
 8049846:	c6 85 d4 fe ff ff 00 	movb   $0x0,-0x12c(%ebp)
 804984d:	83 85 e0 fe ff ff 64 	addl   $0x64,-0x120(%ebp)
 8049854:	83 ec 08             	sub    $0x8,%esp
 8049857:	ff b5 d0 fe ff ff    	pushl  -0x130(%ebp)
 804985d:	ff b5 e8 fe ff ff    	pushl  -0x118(%ebp)
 8049863:	e8 78 1a 00 00       	call   804b2e0 
 8049868:	83 c4 10             	add    $0x10,%esp
 804986b:	85 c0                	test   %eax,%eax
 804986d:	89 c6                	mov    %eax,%esi
 804986f:	0f 84 68 01 00 00    	je     80499dd 
 8049875:	85 ff                	test   %edi,%edi
 8049877:	0f 84 2f 01 00 00    	je     80499ac 
 804987d:	80 3f 2d             	cmpb   $0x2d,(%edi)
 8049880:	0f 84 14 ff ff ff    	je     804979a 
 8049886:	80 3e 00             	cmpb   $0x0,(%esi)
 8049889:	0f 84 64 ff ff ff    	je     80497f3 
 804988f:	83 bd d8 fe ff ff 01 	cmpl   $0x1,-0x128(%ebp)
 8049896:	19 c9                	sbb    %ecx,%ecx
 8049898:	f7 d1                	not    %ecx
 804989a:	23 8d e0 fe ff ff    	and    -0x120(%ebp),%ecx
 80498a0:	03 8d cc fe ff ff    	add    -0x134(%ebp),%ecx
 80498a6:	80 3e 2d             	cmpb   $0x2d,(%esi)
 80498a9:	0f 84 d5 00 00 00    	je     8049984 
 80498af:	50                   	push   %eax
 80498b0:	50                   	push   %eax
 80498b1:	6a 00                	push   $0x0
 80498b3:	56                   	push   %esi
 80498b4:	89 8d c0 fe ff ff    	mov    %ecx,-0x140(%ebp)
 80498ba:	e8 01 f7 ff ff       	call   8048fc0 
 80498bf:	83 c4 10             	add    $0x10,%esp
 80498c2:	89 85 c4 fe ff ff    	mov    %eax,-0x13c(%ebp)
 80498c8:	83 c0 01             	add    $0x1,%eax
 80498cb:	8b 8d c0 fe ff ff    	mov    -0x140(%ebp),%ecx
 80498d1:	0f 84 46 01 00 00    	je     8049a1d 
 80498d7:	50                   	push   %eax
 80498d8:	50                   	push   %eax
 80498d9:	89 f2                	mov    %esi,%edx
 80498db:	8b 85 c4 fe ff ff    	mov    -0x13c(%ebp),%eax
 80498e1:	6a 00                	push   $0x0
 80498e3:	6a 00                	push   $0x0
 80498e5:	e8 76 09 00 00       	call   804a260 
 80498ea:	88 85 c0 fe ff ff    	mov    %al,-0x140(%ebp)
 80498f0:	58                   	pop    %eax
 80498f1:	ff b5 c4 fe ff ff    	pushl  -0x13c(%ebp)
 80498f7:	e8 c4 fa ff ff       	call   80493c0 
 80498fc:	89 c2                	mov    %eax,%edx
 80498fe:	83 c4 10             	add    $0x10,%esp
 8049901:	0f b6 85 c0 fe ff ff 	movzbl -0x140(%ebp),%eax
 8049908:	85 d2                	test   %edx,%edx
 804990a:	0f 85 0d 01 00 00    	jne    8049a1d 
 8049910:	20 85 d4 fe ff ff    	and    %al,-0x12c(%ebp)
 8049916:	e9 32 ff ff ff       	jmp    804984d 
 804991b:	8d 83 6e ad ff ff    	lea    -0x5292(%ebx),%eax
 8049921:	56                   	push   %esi
 8049922:	56                   	push   %esi
 8049923:	50                   	push   %eax
 8049924:	ff b5 dc fe ff ff    	pushl  -0x124(%ebp)
 804992a:	e8 b1 f7 ff ff       	call   80490e0 
 804992f:	83 c4 10             	add    $0x10,%esp
 8049932:	85 c0                	test   %eax,%eax
 8049934:	89 c6                	mov    %eax,%esi
 8049936:	0f 85 7b fd ff ff    	jne    80496b7 
 804993c:	51                   	push   %ecx
 804993d:	51                   	push   %ecx
 804993e:	ff b5 dc fe ff ff    	pushl  -0x124(%ebp)
 8049944:	6a 04                	push   $0x4
 8049946:	e8 f5 34 00 00       	call   804ce40 
 804994b:	89 85 e8 fe ff ff    	mov    %eax,-0x118(%ebp)
 8049951:	8d 83 46 ad ff ff    	lea    -0x52ba(%ebx),%eax
 8049957:	83 c4 0c             	add    $0xc,%esp
 804995a:	6a 05                	push   $0x5
 804995c:	50                   	push   %eax
 804995d:	6a 00                	push   $0x0
 804995f:	e8 1c f7 ff ff       	call   8049080 
 8049964:	89 c7                	mov    %eax,%edi
 8049966:	e8 35 f9 ff ff       	call   80492a0 
 804996b:	8b 95 e8 fe ff ff    	mov    -0x118(%ebp),%edx
 8049971:	52                   	push   %edx
 8049972:	57                   	push   %edi
 8049973:	ff 30                	pushl  (%eax)
 8049975:	6a 01                	push   $0x1
 8049977:	e8 d4 f7 ff ff       	call   8049150 
 804997c:	83 c4 20             	add    $0x20,%esp
 804997f:	e9 33 fd ff ff       	jmp    80496b7 
 8049984:	80 7e 01 00          	cmpb   $0x0,0x1(%esi)
 8049988:	0f 85 21 ff ff ff    	jne    80498af 
 804998e:	50                   	push   %eax
 804998f:	50                   	push   %eax
 8049990:	89 f2                	mov    %esi,%edx
 8049992:	6a ff                	push   $0xffffffff
 8049994:	6a ff                	push   $0xffffffff
 8049996:	31 c0                	xor    %eax,%eax
 8049998:	c6 83 ac 01 00 00 01 	movb   $0x1,0x1ac(%ebx)
 804999f:	e8 bc 08 00 00       	call   804a260 
 80499a4:	83 c4 10             	add    $0x10,%esp
 80499a7:	e9 64 ff ff ff       	jmp    8049910 
 80499ac:	80 38 00             	cmpb   $0x0,(%eax)
 80499af:	0f 85 da fe ff ff    	jne    804988f 
 80499b5:	56                   	push   %esi
 80499b6:	6a 05                	push   $0x5
 80499b8:	ff b5 c8 fe ff ff    	pushl  -0x138(%ebp)
 80499be:	6a 00                	push   $0x0
 80499c0:	e8 bb f6 ff ff       	call   8049080 
 80499c5:	50                   	push   %eax
 80499c6:	ff b5 bc fe ff ff    	pushl  -0x144(%ebp)
 80499cc:	6a 00                	push   $0x0
 80499ce:	6a 00                	push   $0x0
 80499d0:	e8 7b f7 ff ff       	call   8049150 
 80499d5:	83 c4 20             	add    $0x20,%esp
 80499d8:	e9 69 fe ff ff       	jmp    8049846 
 80499dd:	8b 85 f8 fe ff ff    	mov    -0x108(%ebp),%eax
 80499e3:	83 f8 03             	cmp    $0x3,%eax
 80499e6:	0f 84 48 01 00 00    	je     8049b34 
 80499ec:	83 f8 04             	cmp    $0x4,%eax
 80499ef:	0f 84 34 02 00 00    	je     8049c29 
 80499f5:	83 f8 02             	cmp    $0x2,%eax
 80499f8:	0f 84 3b 01 00 00    	je     8049b39 
 80499fe:	8d 83 b4 ae ff ff    	lea    -0x514c(%ebx),%eax
 8049a04:	50                   	push   %eax
 8049a05:	8d 83 70 ad ff ff    	lea    -0x5290(%ebx),%eax
 8049a0b:	68 04 03 00 00       	push   $0x304
 8049a10:	50                   	push   %eax
 8049a11:	8d 83 fc b3 ff ff    	lea    -0x4c04(%ebx),%eax
 8049a17:	50                   	push   %eax
 8049a18:	e8 b3 f9 ff ff       	call   80493d0 
 8049a1d:	50                   	push   %eax
 8049a1e:	56                   	push   %esi
 8049a1f:	6a 03                	push   $0x3
 8049a21:	6a 00                	push   $0x0
 8049a23:	e8 b8 35 00 00       	call   804cfe0 
 8049a28:	89 c6                	mov    %eax,%esi
 8049a2a:	e8 71 f8 ff ff       	call   80492a0 
 8049a2f:	56                   	push   %esi
 8049a30:	ff b5 bc fe ff ff    	pushl  -0x144(%ebp)
 8049a36:	ff 30                	pushl  (%eax)
 8049a38:	6a 00                	push   $0x0
 8049a3a:	e8 11 f7 ff ff       	call   8049150 
 8049a3f:	83 c4 20             	add    $0x20,%esp
 8049a42:	31 c0                	xor    %eax,%eax
 8049a44:	e9 c7 fe ff ff       	jmp    8049910 
 8049a49:	8b bd d8 fe ff ff    	mov    -0x128(%ebp),%edi
 8049a4f:	ba 64 00 00 00       	mov    $0x64,%edx
 8049a54:	89 d0                	mov    %edx,%eax
 8049a56:	89 fa                	mov    %edi,%edx
 8049a58:	f7 e2                	mul    %edx
 8049a5a:	0f 80 d4 00 00 00    	jo     8049b34 
 8049a60:	83 ec 0c             	sub    $0xc,%esp
 8049a63:	50                   	push   %eax
 8049a64:	e8 37 41 00 00       	call   804dba0 
 8049a69:	89 fa                	mov    %edi,%edx
 8049a6b:	83 c4 10             	add    $0x10,%esp
 8049a6e:	89 85 cc fe ff ff    	mov    %eax,-0x134(%ebp)
 8049a74:	83 ea 01             	sub    $0x1,%edx
 8049a77:	0f 84 29 02 00 00    	je     8049ca6 
 8049a7d:	8b bd cc fe ff ff    	mov    -0x134(%ebp),%edi
 8049a83:	31 f6                	xor    %esi,%esi
 8049a85:	eb 20                	jmp    8049aa7 
 8049a87:	8d 4f 04             	lea    0x4(%edi),%ecx
 8049a8a:	52                   	push   %edx
 8049a8b:	51                   	push   %ecx
 8049a8c:	50                   	push   %eax
 8049a8d:	6a 03                	push   $0x3
 8049a8f:	e8 1c f9 ff ff       	call   80493b0 
 8049a94:	83 c4 10             	add    $0x10,%esp
 8049a97:	89 07                	mov    %eax,(%edi)
 8049a99:	83 c6 01             	add    $0x1,%esi
 8049a9c:	83 c7 64             	add    $0x64,%edi
 8049a9f:	39 b5 d8 fe ff ff    	cmp    %esi,-0x128(%ebp)
 8049aa5:	74 2b                	je     8049ad2 
 8049aa7:	8b 85 e0 fe ff ff    	mov    -0x120(%ebp),%eax
 8049aad:	8b 04 b0             	mov    (%eax,%esi,4),%eax
 8049ab0:	85 c0                	test   %eax,%eax
 8049ab2:	74 0b                	je     8049abf 
 8049ab4:	80 38 2d             	cmpb   $0x2d,(%eax)
 8049ab7:	75 ce                	jne    8049a87 
 8049ab9:	80 78 01 00          	cmpb   $0x0,0x1(%eax)
 8049abd:	75 c8                	jne    8049a87 
 8049abf:	8d 47 04             	lea    0x4(%edi),%eax
 8049ac2:	51                   	push   %ecx
 8049ac3:	50                   	push   %eax
 8049ac4:	6a 00                	push   $0x0
 8049ac6:	6a 03                	push   $0x3
 8049ac8:	e8 33 f6 ff ff       	call   8049100 
 8049acd:	83 c4 10             	add    $0x10,%esp
 8049ad0:	eb c5                	jmp    8049a97 
 8049ad2:	8b 85 cc fe ff ff    	mov    -0x134(%ebp),%eax
 8049ad8:	be 01 00 00 00       	mov    $0x1,%esi
 8049add:	83 38 00             	cmpl   $0x0,(%eax)
 8049ae0:	0f 8f 6e fc ff ff    	jg     8049754 
 8049ae6:	6b b5 d8 fe ff ff 64 	imul   $0x64,-0x128(%ebp),%esi
 8049aed:	89 c1                	mov    %eax,%ecx
 8049aef:	31 d2                	xor    %edx,%edx
 8049af1:	c7 85 e0 fe ff ff 01 	movl   $0x1,-0x120(%ebp)
 8049af8:	00 00 00 
 8049afb:	01 c6                	add    %eax,%esi
 8049afd:	31 c0                	xor    %eax,%eax
 8049aff:	eb 0d                	jmp    8049b0e 
 8049b01:	c7 85 e0 fe ff ff 07 	movl   $0x7,-0x120(%ebp)
 8049b08:	00 00 00 
 8049b0b:	83 c1 64             	add    $0x64,%ecx
 8049b0e:	39 f1                	cmp    %esi,%ecx
 8049b10:	0f 84 59 01 00 00    	je     8049c6f 
 8049b16:	83 39 00             	cmpl   $0x0,(%ecx)
 8049b19:	75 f0                	jne    8049b0b 
 8049b1b:	8b 79 14             	mov    0x14(%ecx),%edi
 8049b1e:	81 e7 00 f0 00 00    	and    $0xf000,%edi
 8049b24:	81 ff 00 80 00 00    	cmp    $0x8000,%edi
 8049b2a:	75 d5                	jne    8049b01 
 8049b2c:	03 41 30             	add    0x30(%ecx),%eax
 8049b2f:	13 51 34             	adc    0x34(%ecx),%edx
 8049b32:	eb d7                	jmp    8049b0b 
 8049b34:	e8 07 43 00 00       	call   804de40 
 8049b39:	83 bd dc fe ff ff 00 	cmpl   $0x0,-0x124(%ebp)
 8049b40:	75 29                	jne    8049b6b 
 8049b42:	80 bd d4 fe ff ff 00 	cmpb   $0x0,-0x12c(%ebp)
 8049b49:	74 20                	je     8049b6b 
 8049b4b:	83 ec 0c             	sub    $0xc,%esp
 8049b4e:	ff b5 e8 fe ff ff    	pushl  -0x118(%ebp)
 8049b54:	e8 37 18 00 00       	call   804b390 
 8049b59:	83 c4 10             	add    $0x10,%esp
 8049b5c:	85 c0                	test   %eax,%eax
 8049b5e:	c6 85 d4 fe ff ff 01 	movb   $0x1,-0x12c(%ebp)
 8049b65:	0f 84 d6 02 00 00    	je     8049e41 
 8049b6b:	80 bd bb fe ff ff 00 	cmpb   $0x0,-0x145(%ebp)
 8049b72:	0f 85 ba 01 00 00    	jne    8049d32 
 8049b78:	83 ec 0c             	sub    $0xc,%esp
 8049b7b:	ff b5 e8 fe ff ff    	pushl  -0x118(%ebp)
 8049b81:	e8 0a 18 00 00       	call   804b390 
 8049b86:	83 c4 10             	add    $0x10,%esp
 8049b89:	83 f8 01             	cmp    $0x1,%eax
 8049b8c:	76 58                	jbe    8049be6 
 8049b8e:	8d 83 a2 ad ff ff    	lea    -0x525e(%ebx),%eax
 8049b94:	56                   	push   %esi
 8049b95:	6a 05                	push   $0x5
 8049b97:	50                   	push   %eax
 8049b98:	6a 00                	push   $0x0
 8049b9a:	e8 e1 f4 ff ff       	call   8049080 
 8049b9f:	8b 93 e4 01 00 00    	mov    0x1e4(%ebx),%edx
 8049ba5:	89 04 24             	mov    %eax,(%esp)
 8049ba8:	8b 83 e0 01 00 00    	mov    0x1e0(%ebx),%eax
 8049bae:	ff b3 c4 01 00 00    	pushl  0x1c4(%ebx)
 8049bb4:	ff b3 c0 01 00 00    	pushl  0x1c0(%ebx)
 8049bba:	ff b3 cc 01 00 00    	pushl  0x1cc(%ebx)
 8049bc0:	ff b3 c8 01 00 00    	pushl  0x1c8(%ebx)
 8049bc6:	ff b3 d4 01 00 00    	pushl  0x1d4(%ebx)
 8049bcc:	ff b3 d0 01 00 00    	pushl  0x1d0(%ebx)
 8049bd2:	ff b3 dc 01 00 00    	pushl  0x1dc(%ebx)
 8049bd8:	ff b3 d8 01 00 00    	pushl  0x1d8(%ebx)
 8049bde:	e8 2d 04 00 00       	call   804a010 
 8049be3:	83 c4 30             	add    $0x30,%esp
 8049be6:	83 ec 0c             	sub    $0xc,%esp
 8049be9:	ff b5 e8 fe ff ff    	pushl  -0x118(%ebp)
 8049bef:	e8 bc 17 00 00       	call   804b3b0 
 8049bf4:	59                   	pop    %ecx
 8049bf5:	ff b5 cc fe ff ff    	pushl  -0x134(%ebp)
 8049bfb:	e8 10 f4 ff ff       	call   8049010 
 8049c00:	83 c4 10             	add    $0x10,%esp
 8049c03:	80 bb ac 01 00 00 00 	cmpb   $0x0,0x1ac(%ebx)
 8049c0a:	0f 85 39 01 00 00    	jne    8049d49 
 8049c10:	0f b6 85 d4 fe ff ff 	movzbl -0x12c(%ebp),%eax
 8049c17:	8d 65 f0             	lea    -0x10(%ebp),%esp
 8049c1a:	59                   	pop    %ecx
 8049c1b:	5b                   	pop    %ebx
 8049c1c:	83 f0 01             	xor    $0x1,%eax
 8049c1f:	5e                   	pop    %esi
 8049c20:	0f b6 c0             	movzbl %al,%eax
 8049c23:	5f                   	pop    %edi
 8049c24:	5d                   	pop    %ebp
 8049c25:	8d 61 fc             	lea    -0x4(%ecx),%esp
 8049c28:	c3                   	ret    
 8049c29:	50                   	push   %eax
 8049c2a:	ff b5 dc fe ff ff    	pushl  -0x124(%ebp)
 8049c30:	6a 03                	push   $0x3
 8049c32:	6a 00                	push   $0x0
 8049c34:	e8 a7 33 00 00       	call   804cfe0 
 8049c39:	89 c7                	mov    %eax,%edi
 8049c3b:	8d 83 61 ad ff ff    	lea    -0x529f(%ebx),%eax
 8049c41:	83 c4 0c             	add    $0xc,%esp
 8049c44:	6a 05                	push   $0x5
 8049c46:	50                   	push   %eax
 8049c47:	6a 00                	push   $0x0
 8049c49:	e8 32 f4 ff ff       	call   8049080 
 8049c4e:	89 c6                	mov    %eax,%esi
 8049c50:	e8 4b f6 ff ff       	call   80492a0 
 8049c55:	57                   	push   %edi
 8049c56:	56                   	push   %esi
 8049c57:	ff 30                	pushl  (%eax)
 8049c59:	6a 00                	push   $0x0
 8049c5b:	e8 f0 f4 ff ff       	call   8049150 
 8049c60:	83 c4 20             	add    $0x20,%esp
 8049c63:	c6 85 d4 fe ff ff 00 	movb   $0x0,-0x12c(%ebp)
 8049c6a:	e9 fc fe ff ff       	jmp    8049b6b 
 8049c6f:	be 01 00 00 00       	mov    $0x1,%esi
 8049c74:	83 fa 00             	cmp    $0x0,%edx
 8049c77:	77 1a                	ja     8049c93 
 8049c79:	83 f8 09             	cmp    $0x9,%eax
 8049c7c:	77 15                	ja     8049c93 
 8049c7e:	8b 85 e0 fe ff ff    	mov    -0x120(%ebp),%eax
 8049c84:	39 c6                	cmp    %eax,%esi
 8049c86:	0f 8d c8 fa ff ff    	jge    8049754 
 8049c8c:	89 c6                	mov    %eax,%esi
 8049c8e:	e9 c1 fa ff ff       	jmp    8049754 
 8049c93:	6a 00                	push   $0x0
 8049c95:	6a 0a                	push   $0xa
 8049c97:	83 c6 01             	add    $0x1,%esi
 8049c9a:	52                   	push   %edx
 8049c9b:	50                   	push   %eax
 8049c9c:	e8 3f 4c 00 00       	call   804e8e0 
 8049ca1:	83 c4 10             	add    $0x10,%esp
 8049ca4:	eb ce                	jmp    8049c74 
 8049ca6:	0f b6 83 b7 01 00 00 	movzbl 0x1b7(%ebx),%eax
 8049cad:	0f b6 93 b8 01 00 00 	movzbl 0x1b8(%ebx),%edx
 8049cb4:	01 c2                	add    %eax,%edx
 8049cb6:	0f b6 83 b6 01 00 00 	movzbl 0x1b6(%ebx),%eax
 8049cbd:	01 c2                	add    %eax,%edx
 8049cbf:	0f b6 83 b5 01 00 00 	movzbl 0x1b5(%ebx),%eax
 8049cc6:	01 c2                	add    %eax,%edx
 8049cc8:	0f b6 83 b4 01 00 00 	movzbl 0x1b4(%ebx),%eax
 8049ccf:	01 d0                	add    %edx,%eax
 8049cd1:	83 e8 01             	sub    $0x1,%eax
 8049cd4:	0f 85 a3 fd ff ff    	jne    8049a7d 
 8049cda:	8b 85 cc fe ff ff    	mov    -0x134(%ebp),%eax
 8049ce0:	be 01 00 00 00       	mov    $0x1,%esi
 8049ce5:	c7 00 01 00 00 00    	movl   $0x1,(%eax)
 8049ceb:	e9 64 fa ff ff       	jmp    8049754 
 8049cf0:	8b 95 e8 fe ff ff    	mov    -0x118(%ebp),%edx
 8049cf6:	39 c2                	cmp    %eax,%edx
 8049cf8:	0f 8e 28 01 00 00    	jle    8049e26 
 8049cfe:	8d 0c 87             	lea    (%edi,%eax,4),%ecx
 8049d01:	29 c2                	sub    %eax,%edx
 8049d03:	89 95 d8 fe ff ff    	mov    %edx,-0x128(%ebp)
 8049d09:	89 8d e0 fe ff ff    	mov    %ecx,-0x120(%ebp)
 8049d0f:	83 ec 0c             	sub    $0xc,%esp
 8049d12:	ff b5 e0 fe ff ff    	pushl  -0x120(%ebp)
 8049d18:	e8 33 15 00 00       	call   804b250 
 8049d1d:	83 c4 10             	add    $0x10,%esp
 8049d20:	89 85 e8 fe ff ff    	mov    %eax,-0x118(%ebp)
 8049d26:	c6 85 bb fe ff ff 00 	movb   $0x0,-0x145(%ebp)
 8049d2d:	e9 ea f9 ff ff       	jmp    804971c 
 8049d32:	8d 85 58 ff ff ff    	lea    -0xa8(%ebp),%eax
 8049d38:	83 ec 0c             	sub    $0xc,%esp
 8049d3b:	50                   	push   %eax
 8049d3c:	e8 af 36 00 00       	call   804d3f0 
 8049d41:	83 c4 10             	add    $0x10,%esp
 8049d44:	e9 2f fe ff ff       	jmp    8049b78 
 8049d49:	83 ec 0c             	sub    $0xc,%esp
 8049d4c:	6a 00                	push   $0x0
 8049d4e:	e8 6d f6 ff ff       	call   80493c0 
 8049d53:	83 c4 10             	add    $0x10,%esp
 8049d56:	85 c0                	test   %eax,%eax
 8049d58:	0f 84 b2 fe ff ff    	je     8049c10 
 8049d5e:	e8 3d f5 ff ff       	call   80492a0 
 8049d63:	52                   	push   %edx
 8049d64:	8d 93 0e b5 ff ff    	lea    -0x4af2(%ebx),%edx
 8049d6a:	52                   	push   %edx
 8049d6b:	ff 30                	pushl  (%eax)
 8049d6d:	6a 01                	push   $0x1
 8049d6f:	e8 dc f3 ff ff       	call   8049150 
 8049d74:	83 c4 10             	add    $0x10,%esp
 8049d77:	e9 94 fe ff ff       	jmp    8049c10 
 8049d7c:	df ad 24 ff ff ff    	fildll -0xdc(%ebp)
 8049d82:	dd 9d e8 fe ff ff    	fstpl  -0x118(%ebp)
 8049d88:	e8 23 1a 00 00       	call   804b7b0 
 8049d8d:	d9 83 68 b4 ff ff    	flds   -0x4b98(%ebx)
 8049d93:	dc c9                	fmul   %st,%st(1)
 8049d95:	d9 83 64 b4 ff ff    	flds   -0x4b9c(%ebx)
 8049d9b:	d9 ca                	fxch   %st(2)
 8049d9d:	dd ea                	fucomp %st(2)
 8049d9f:	df e0                	fnstsw %ax
 8049da1:	9e                   	sahf   
 8049da2:	0f 86 f8 00 00 00    	jbe    8049ea0 
 8049da8:	dd d8                	fstp   %st(0)
 8049daa:	dd 85 e8 fe ff ff    	fldl   -0x118(%ebp)
 8049db0:	d9 c9                	fxch   %st(1)
 8049db2:	da e9                	fucompp 
 8049db4:	df e0                	fnstsw %ax
 8049db6:	9e                   	sahf   
 8049db7:	0f 82 32 f9 ff ff    	jb     80496ef 
 8049dbd:	8d bd 58 ff ff ff    	lea    -0xa8(%ebp),%edi
 8049dc3:	83 ec 0c             	sub    $0xc,%esp
 8049dc6:	57                   	push   %edi
 8049dc7:	e8 a4 35 00 00       	call   804d370 
 8049dcc:	58                   	pop    %eax
 8049dcd:	5a                   	pop    %edx
 8049dce:	57                   	push   %edi
 8049dcf:	56                   	push   %esi
 8049dd0:	e8 5b 36 00 00       	call   804d430 
 8049dd5:	83 c4 10             	add    $0x10,%esp
 8049dd8:	84 c0                	test   %al,%al
 8049dda:	0f 84 89 00 00 00    	je     8049e69 
 8049de0:	83 ec 0c             	sub    $0xc,%esp
 8049de3:	56                   	push   %esi
 8049de4:	e8 97 40 00 00       	call   804de80 
 8049de9:	83 c4 10             	add    $0x10,%esp
 8049dec:	85 c0                	test   %eax,%eax
 8049dee:	75 79                	jne    8049e69 
 8049df0:	8b 85 5c ff ff ff    	mov    -0xa4(%ebp),%eax
 8049df6:	83 ec 0c             	sub    $0xc,%esp
 8049df9:	8b 95 58 ff ff ff    	mov    -0xa8(%ebp),%edx
 8049dff:	50                   	push   %eax
 8049e00:	89 85 e0 fe ff ff    	mov    %eax,-0x120(%ebp)
 8049e06:	89 95 d8 fe ff ff    	mov    %edx,-0x128(%ebp)
 8049e0c:	e8 3f 14 00 00       	call   804b250 
 8049e11:	83 c4 10             	add    $0x10,%esp
 8049e14:	89 85 e8 fe ff ff    	mov    %eax,-0x118(%ebp)
 8049e1a:	c6 85 bb fe ff ff 01 	movb   $0x1,-0x145(%ebp)
 8049e21:	e9 f6 f8 ff ff       	jmp    804971c 
 8049e26:	8d 83 a8 01 00 00    	lea    0x1a8(%ebx),%eax
 8049e2c:	c7 85 d8 fe ff ff 01 	movl   $0x1,-0x128(%ebp)
 8049e33:	00 00 00 
 8049e36:	89 85 e0 fe ff ff    	mov    %eax,-0x120(%ebp)
 8049e3c:	e9 ce fe ff ff       	jmp    8049d0f 
 8049e41:	8b 8d cc fe ff ff    	mov    -0x134(%ebp),%ecx
 8049e47:	57                   	push   %edi
 8049e48:	31 d2                	xor    %edx,%edx
 8049e4a:	57                   	push   %edi
 8049e4b:	6a ff                	push   $0xffffffff
 8049e4d:	6a ff                	push   $0xffffffff
 8049e4f:	c6 83 ac 01 00 00 01 	movb   $0x1,0x1ac(%ebx)
 8049e56:	e8 05 04 00 00       	call   804a260 
 8049e5b:	83 c4 10             	add    $0x10,%esp
 8049e5e:	88 85 d4 fe ff ff    	mov    %al,-0x12c(%ebp)
 8049e64:	e9 02 fd ff ff       	jmp    8049b6b 
 8049e69:	56                   	push   %esi
 8049e6a:	56                   	push   %esi
 8049e6b:	ff b5 dc fe ff ff    	pushl  -0x124(%ebp)
 8049e71:	6a 04                	push   $0x4
 8049e73:	e8 c8 2f 00 00       	call   804ce40 
 8049e78:	89 c6                	mov    %eax,%esi
 8049e7a:	8d 83 dc b3 ff ff    	lea    -0x4c24(%ebx),%eax
 8049e80:	83 c4 0c             	add    $0xc,%esp
 8049e83:	6a 05                	push   $0x5
 8049e85:	50                   	push   %eax
 8049e86:	6a 00                	push   $0x0
 8049e88:	e8 f3 f1 ff ff       	call   8049080 
 8049e8d:	56                   	push   %esi
 8049e8e:	50                   	push   %eax
 8049e8f:	6a 00                	push   $0x0
 8049e91:	6a 01                	push   $0x1
 8049e93:	e8 b8 f2 ff ff       	call   8049150 
 8049e98:	83 c4 20             	add    $0x20,%esp
 8049e9b:	e9 50 ff ff ff       	jmp    8049df0 
 8049ea0:	dd d9                	fstp   %st(1)
 8049ea2:	dd 9d e0 fe ff ff    	fstpl  -0x120(%ebp)
 8049ea8:	e8 03 19 00 00       	call   804b7b0 
 8049ead:	dd 85 e0 fe ff ff    	fldl   -0x120(%ebp)
 8049eb3:	de c9                	fmulp  %st,%st(1)
 8049eb5:	e9 f0 fe ff ff       	jmp    8049daa 
 8049eba:	52                   	push   %edx
 8049ebb:	52                   	push   %edx
 8049ebc:	ff 34 87             	pushl  (%edi,%eax,4)
 8049ebf:	6a 04                	push   $0x4
 8049ec1:	e8 7a 2f 00 00       	call   804ce40 
 8049ec6:	89 c6                	mov    %eax,%esi
 8049ec8:	8d 83 35 ad ff ff    	lea    -0x52cb(%ebx),%eax
 8049ece:	83 c4 0c             	add    $0xc,%esp
 8049ed1:	6a 05                	push   $0x5
 8049ed3:	50                   	push   %eax
 8049ed4:	6a 00                	push   $0x0
 8049ed6:	e8 a5 f1 ff ff       	call   8049080 
 8049edb:	56                   	push   %esi
 8049edc:	50                   	push   %eax
 8049edd:	6a 00                	push   $0x0
 8049edf:	6a 00                	push   $0x0
 8049ee1:	e8 6a f2 ff ff       	call   8049150 
 8049ee6:	8d 83 a8 b3 ff ff    	lea    -0x4c58(%ebx),%eax
 8049eec:	83 c4 1c             	add    $0x1c,%esp
 8049eef:	6a 05                	push   $0x5
 8049ef1:	50                   	push   %eax
 8049ef2:	6a 00                	push   $0x0
 8049ef4:	e8 87 f1 ff ff       	call   8049080 
 8049ef9:	50                   	push   %eax
 8049efa:	8d 83 70 b8 ff ff    	lea    -0x4790(%ebx),%eax
 8049f00:	50                   	push   %eax
 8049f01:	8b 83 b4 ff ff ff    	mov    -0x4c(%ebx),%eax
 8049f07:	6a 01                	push   $0x1
 8049f09:	ff 30                	pushl  (%eax)
 8049f0b:	e8 50 f4 ff ff       	call   8049360 
 8049f10:	83 c4 14             	add    $0x14,%esp
 8049f13:	6a 01                	push   $0x1
 8049f15:	e8 06 10 00 00       	call   804af20 
 8049f1a:	31 ed                	xor    %ebp,%ebp
 8049f1c:	5e                   	pop    %esi
 8049f1d:	89 e1                	mov    %esp,%ecx
 8049f1f:	83 e4 f0             	and    $0xfffffff0,%esp
 8049f22:	50                   	push   %eax
 8049f23:	54                   	push   %esp
 8049f24:	52                   	push   %edx
 8049f25:	68 d0 eb 04 08       	push   $0x804ebd0
 8049f2a:	68 70 eb 04 08       	push   $0x804eb70
 8049f2f:	51                   	push   %ecx
 8049f30:	56                   	push   %esi
 8049f31:	68 00 94 04 08       	push   $0x8049400
 8049f36:	e8 25 f3 ff ff       	call   8049260 
 8049f3b:	f4                   	hlt    
 8049f3c:	66 90                	xchg   %ax,%ax
 8049f3e:	66 90                	xchg   %ax,%ax
 8049f40:	8b 1c 24             	mov    (%esp),%ebx
 8049f43:	c3                   	ret    
 8049f44:	66 90                	xchg   %ax,%ax
 8049f46:	66 90                	xchg   %ax,%ax
 8049f48:	66 90                	xchg   %ax,%ax
 8049f4a:	66 90                	xchg   %ax,%ax
 8049f4c:	66 90                	xchg   %ax,%ax
 8049f4e:	66 90                	xchg   %ax,%ax
 8049f50:	b8 87 41 05 08       	mov    $0x8054187,%eax
 8049f55:	2d 84 41 05 08       	sub    $0x8054184,%eax
 8049f5a:	83 f8 06             	cmp    $0x6,%eax
 8049f5d:	76 1a                	jbe    8049f79 
 8049f5f:	b8 00 00 00 00       	mov    $0x0,%eax
 8049f64:	85 c0                	test   %eax,%eax
 8049f66:	74 11                	je     8049f79 
 8049f68:	55                   	push   %ebp
 8049f69:	89 e5                	mov    %esp,%ebp
 8049f6b:	83 ec 14             	sub    $0x14,%esp
 8049f6e:	68 84 41 05 08       	push   $0x8054184
 8049f73:	ff d0                	call   *%eax
 8049f75:	83 c4 10             	add    $0x10,%esp
 8049f78:	c9                   	leave  
 8049f79:	f3 c3                	repz ret 
 8049f7b:	90                   	nop
 8049f7c:	8d 74 26 00          	lea    0x0(%esi,%eiz,1),%esi
 8049f80:	b8 84 41 05 08       	mov    $0x8054184,%eax
 8049f85:	2d 84 41 05 08       	sub    $0x8054184,%eax
 8049f8a:	c1 f8 02             	sar    $0x2,%eax
 8049f8d:	89 c2                	mov    %eax,%edx
 8049f8f:	c1 ea 1f             	shr    $0x1f,%edx
 8049f92:	01 d0                	add    %edx,%eax
 8049f94:	d1 f8                	sar    %eax
 8049f96:	74 1b                	je     8049fb3 
 8049f98:	ba 00 00 00 00       	mov    $0x0,%edx
 8049f9d:	85 d2                	test   %edx,%edx
 8049f9f:	74 12                	je     8049fb3 
 8049fa1:	55                   	push   %ebp
 8049fa2:	89 e5                	mov    %esp,%ebp
 8049fa4:	83 ec 10             	sub    $0x10,%esp
 8049fa7:	50                   	push   %eax
 8049fa8:	68 84 41 05 08       	push   $0x8054184
 8049fad:	ff d2                	call   *%edx
 8049faf:	83 c4 10             	add    $0x10,%esp
 8049fb2:	c9                   	leave  
 8049fb3:	f3 c3                	repz ret 
 8049fb5:	8d 74 26 00          	lea    0x0(%esi,%eiz,1),%esi
 8049fb9:	8d bc 27 00 00 00 00 	lea    0x0(%edi,%eiz,1),%edi
 8049fc0:	80 3d a0 41 05 08 00 	cmpb   $0x0,0x80541a0
 8049fc7:	75 13                	jne    8049fdc 
 8049fc9:	55                   	push   %ebp
 8049fca:	89 e5                	mov    %esp,%ebp
 8049fcc:	83 ec 08             	sub    $0x8,%esp
 8049fcf:	e8 7c ff ff ff       	call   8049f50 
 8049fd4:	c6 05 a0 41 05 08 01 	movb   $0x1,0x80541a0
 8049fdb:	c9                   	leave  
 8049fdc:	f3 c3                	repz ret 
 8049fde:	66 90                	xchg   %ax,%ax
 8049fe0:	b8 fc 3d 05 08       	mov    $0x8053dfc,%eax
 8049fe5:	8b 10                	mov    (%eax),%edx
 8049fe7:	85 d2                	test   %edx,%edx
 8049fe9:	75 05                	jne    8049ff0 
 8049feb:	eb 93                	jmp    8049f80 
 8049fed:	8d 76 00             	lea    0x0(%esi),%esi
 8049ff0:	ba 00 00 00 00       	mov    $0x0,%edx
 8049ff5:	85 d2                	test   %edx,%edx
 8049ff7:	74 f2                	je     8049feb 
 8049ff9:	55                   	push   %ebp
 8049ffa:	89 e5                	mov    %esp,%ebp
 8049ffc:	83 ec 14             	sub    $0x14,%esp
 8049fff:	50                   	push   %eax
 804a000:	ff d2                	call   *%edx
 804a002:	83 c4 10             	add    $0x10,%esp
 804a005:	c9                   	leave  
 804a006:	e9 75 ff ff ff       	jmp    8049f80 
 804a00b:	66 90                	xchg   %ax,%ax
 804a00d:	66 90                	xchg   %ax,%ax
 804a00f:	90                   	nop
 804a010:	57                   	push   %edi
 804a011:	56                   	push   %esi
 804a012:	53                   	push   %ebx
 804a013:	e8 28 ff ff ff       	call   8049f40 
 804a018:	81 c3 e8 9f 00 00    	add    $0x9fe8,%ebx
 804a01e:	83 ec 40             	sub    $0x40,%esp
 804a021:	8b 74 24 50          	mov    0x50(%esp),%esi
 804a025:	8b 7c 24 54          	mov    0x54(%esp),%edi
 804a029:	65 8b 0d 14 00 00 00 	mov    %gs:0x14,%ecx
 804a030:	89 4c 24 3c          	mov    %ecx,0x3c(%esp)
 804a034:	31 c9                	xor    %ecx,%ecx
 804a036:	80 bb b8 01 00 00 00 	cmpb   $0x0,0x1b8(%ebx)
 804a03d:	89 34 24             	mov    %esi,(%esp)
 804a040:	89 7c 24 04          	mov    %edi,0x4(%esp)
 804a044:	8b 74 24 58          	mov    0x58(%esp),%esi
 804a048:	8b 7c 24 5c          	mov    0x5c(%esp),%edi
 804a04c:	89 74 24 08          	mov    %esi,0x8(%esp)
 804a050:	89 7c 24 0c          	mov    %edi,0xc(%esp)
 804a054:	8b 74 24 60          	mov    0x60(%esp),%esi
 804a058:	8b 7c 24 64          	mov    0x64(%esp),%edi
 804a05c:	89 74 24 10          	mov    %esi,0x10(%esp)
 804a060:	89 7c 24 14          	mov    %edi,0x14(%esp)
 804a064:	8b 74 24 68          	mov    0x68(%esp),%esi
 804a068:	8b 7c 24 6c          	mov    0x6c(%esp),%edi
 804a06c:	89 74 24 18          	mov    %esi,0x18(%esp)
 804a070:	89 7c 24 1c          	mov    %edi,0x1c(%esp)
 804a074:	8d bb ad ae ff ff    	lea    -0x5153(%ebx),%edi
 804a07a:	8b 74 24 70          	mov    0x70(%esp),%esi
 804a07e:	0f 85 ac 00 00 00    	jne    804a130 
 804a084:	80 bb b7 01 00 00 00 	cmpb   $0x0,0x1b7(%ebx)
 804a08b:	0f 85 d0 00 00 00    	jne    804a161 
 804a091:	80 bb b6 01 00 00 00 	cmpb   $0x0,0x1b6(%ebx)
 804a098:	0f 85 fd 00 00 00    	jne    804a19b 
 804a09e:	80 bb b5 01 00 00 00 	cmpb   $0x0,0x1b5(%ebx)
 804a0a5:	0f 85 2a 01 00 00    	jne    804a1d5 
 804a0ab:	80 bb b4 01 00 00 00 	cmpb   $0x0,0x1b4(%ebx)
 804a0b2:	0f 85 57 01 00 00    	jne    804a20f 
 804a0b8:	85 f6                	test   %esi,%esi
 804a0ba:	74 39                	je     804a0f5 
 804a0bc:	83 ec 08             	sub    $0x8,%esp
 804a0bf:	6a 0a                	push   $0xa
 804a0c1:	56                   	push   %esi
 804a0c2:	e8 69 f1 ff ff       	call   8049230 
 804a0c7:	83 c4 10             	add    $0x10,%esp
 804a0ca:	85 c0                	test   %eax,%eax
 804a0cc:	74 12                	je     804a0e0 
 804a0ce:	83 ec 04             	sub    $0x4,%esp
 804a0d1:	56                   	push   %esi
 804a0d2:	6a 03                	push   $0x3
 804a0d4:	6a 00                	push   $0x0
 804a0d6:	e8 05 2f 00 00       	call   804cfe0 
 804a0db:	83 c4 10             	add    $0x10,%esp
 804a0de:	89 c6                	mov    %eax,%esi
 804a0e0:	8d 83 80 b4 ff ff    	lea    -0x4b80(%ebx),%eax
 804a0e6:	83 ec 04             	sub    $0x4,%esp
 804a0e9:	56                   	push   %esi
 804a0ea:	50                   	push   %eax
 804a0eb:	6a 01                	push   $0x1
 804a0ed:	e8 ee f1 ff ff       	call   80492e0 
 804a0f2:	83 c4 10             	add    $0x10,%esp
 804a0f5:	8b 83 d0 ff ff ff    	mov    -0x30(%ebx),%eax
 804a0fb:	8b 00                	mov    (%eax),%eax
 804a0fd:	8b 50 14             	mov    0x14(%eax),%edx
 804a100:	3b 50 18             	cmp    0x18(%eax),%edx
 804a103:	0f 83 37 01 00 00    	jae    804a240 
 804a109:	8d 4a 01             	lea    0x1(%edx),%ecx
 804a10c:	89 48 14             	mov    %ecx,0x14(%eax)
 804a10f:	c6 02 0a             	movb   $0xa,(%edx)
 804a112:	8b 44 24 3c          	mov    0x3c(%esp),%eax
 804a116:	65 33 05 14 00 00 00 	xor    %gs:0x14,%eax
 804a11d:	0f 85 30 01 00 00    	jne    804a253 
 804a123:	83 c4 40             	add    $0x40,%esp
 804a126:	5b                   	pop    %ebx
 804a127:	5e                   	pop    %esi
 804a128:	5f                   	pop    %edi
 804a129:	c3                   	ret    
 804a12a:	8d b6 00 00 00 00    	lea    0x0(%esi),%esi
 804a130:	83 ec 04             	sub    $0x4,%esp
 804a133:	8d 4c 24 2b          	lea    0x2b(%esp),%ecx
 804a137:	51                   	push   %ecx
 804a138:	52                   	push   %edx
 804a139:	50                   	push   %eax
 804a13a:	e8 41 14 00 00       	call   804b580 
 804a13f:	50                   	push   %eax
 804a140:	ff b3 b0 01 00 00    	pushl  0x1b0(%ebx)
 804a146:	57                   	push   %edi
 804a147:	6a 01                	push   $0x1
 804a149:	83 ef 01             	sub    $0x1,%edi
 804a14c:	e8 8f f1 ff ff       	call   80492e0 
 804a151:	83 c4 20             	add    $0x20,%esp
 804a154:	80 bb b7 01 00 00 00 	cmpb   $0x0,0x1b7(%ebx)
 804a15b:	0f 84 30 ff ff ff    	je     804a091 
 804a161:	83 ec 04             	sub    $0x4,%esp
 804a164:	8d 44 24 2b          	lea    0x2b(%esp),%eax
 804a168:	50                   	push   %eax
 804a169:	ff 74 24 0c          	pushl  0xc(%esp)
 804a16d:	ff 74 24 0c          	pushl  0xc(%esp)
 804a171:	e8 0a 14 00 00       	call   804b580 
 804a176:	50                   	push   %eax
 804a177:	ff b3 b0 01 00 00    	pushl  0x1b0(%ebx)
 804a17d:	57                   	push   %edi
 804a17e:	6a 01                	push   $0x1
 804a180:	8d bb ac ae ff ff    	lea    -0x5154(%ebx),%edi
 804a186:	e8 55 f1 ff ff       	call   80492e0 
 804a18b:	83 c4 20             	add    $0x20,%esp
 804a18e:	80 bb b6 01 00 00 00 	cmpb   $0x0,0x1b6(%ebx)
 804a195:	0f 84 03 ff ff ff    	je     804a09e 
 804a19b:	83 ec 04             	sub    $0x4,%esp
 804a19e:	8d 44 24 2b          	lea    0x2b(%esp),%eax
 804a1a2:	50                   	push   %eax
 804a1a3:	ff 74 24 14          	pushl  0x14(%esp)
 804a1a7:	ff 74 24 14          	pushl  0x14(%esp)
 804a1ab:	e8 d0 13 00 00       	call   804b580 
 804a1b0:	50                   	push   %eax
 804a1b1:	ff b3 b0 01 00 00    	pushl  0x1b0(%ebx)
 804a1b7:	57                   	push   %edi
 804a1b8:	6a 01                	push   $0x1
 804a1ba:	8d bb ac ae ff ff    	lea    -0x5154(%ebx),%edi
 804a1c0:	e8 1b f1 ff ff       	call   80492e0 
 804a1c5:	83 c4 20             	add    $0x20,%esp
 804a1c8:	80 bb b5 01 00 00 00 	cmpb   $0x0,0x1b5(%ebx)
 804a1cf:	0f 84 d6 fe ff ff    	je     804a0ab 
 804a1d5:	83 ec 04             	sub    $0x4,%esp
 804a1d8:	8d 44 24 2b          	lea    0x2b(%esp),%eax
 804a1dc:	50                   	push   %eax
 804a1dd:	ff 74 24 1c          	pushl  0x1c(%esp)
 804a1e1:	ff 74 24 1c          	pushl  0x1c(%esp)
 804a1e5:	e8 96 13 00 00       	call   804b580 
 804a1ea:	50                   	push   %eax
 804a1eb:	ff b3 b0 01 00 00    	pushl  0x1b0(%ebx)
 804a1f1:	57                   	push   %edi
 804a1f2:	6a 01                	push   $0x1
 804a1f4:	8d bb ac ae ff ff    	lea    -0x5154(%ebx),%edi
 804a1fa:	e8 e1 f0 ff ff       	call   80492e0 
 804a1ff:	83 c4 20             	add    $0x20,%esp
 804a202:	80 bb b4 01 00 00 00 	cmpb   $0x0,0x1b4(%ebx)
 804a209:	0f 84 a9 fe ff ff    	je     804a0b8 
 804a20f:	83 ec 04             	sub    $0x4,%esp
 804a212:	8d 44 24 2b          	lea    0x2b(%esp),%eax
 804a216:	50                   	push   %eax
 804a217:	ff 74 24 24          	pushl  0x24(%esp)
 804a21b:	ff 74 24 24          	pushl  0x24(%esp)
 804a21f:	e8 5c 13 00 00       	call   804b580 
 804a224:	50                   	push   %eax
 804a225:	ff b3 b0 01 00 00    	pushl  0x1b0(%ebx)
 804a22b:	57                   	push   %edi
 804a22c:	6a 01                	push   $0x1
 804a22e:	e8 ad f0 ff ff       	call   80492e0 
 804a233:	83 c4 20             	add    $0x20,%esp
 804a236:	e9 7d fe ff ff       	jmp    804a0b8 
 804a23b:	90                   	nop
 804a23c:	8d 74 26 00          	lea    0x0(%esi,%eiz,1),%esi
 804a240:	83 ec 08             	sub    $0x8,%esp
 804a243:	6a 0a                	push   $0xa
 804a245:	50                   	push   %eax
 804a246:	e8 e5 f0 ff ff       	call   8049330 
 804a24b:	83 c4 10             	add    $0x10,%esp
 804a24e:	e9 bf fe ff ff       	jmp    804a112 
 804a253:	e8 c8 49 00 00       	call   804ec20 
 804a258:	90                   	nop
 804a259:	8d b4 26 00 00 00 00 	lea    0x0(%esi,%eiz,1),%esi
 804a260:	55                   	push   %ebp
 804a261:	57                   	push   %edi
 804a262:	89 cd                	mov    %ecx,%ebp
 804a264:	56                   	push   %esi
 804a265:	53                   	push   %ebx
 804a266:	89 d6                	mov    %edx,%esi
 804a268:	e8 d3 fc ff ff       	call   8049f40 
 804a26d:	81 c3 93 9d 00 00    	add    $0x9d93,%ebx
 804a273:	81 ec 9c 40 00 00    	sub    $0x409c,%esp
 804a279:	89 44 24 44          	mov    %eax,0x44(%esp)
 804a27d:	8b 84 24 b0 40 00 00 	mov    0x40b0(%esp),%eax
 804a284:	89 54 24 68          	mov    %edx,0x68(%esp)
 804a288:	8b 94 24 b4 40 00 00 	mov    0x40b4(%esp),%edx
 804a28f:	89 74 24 6c          	mov    %esi,0x6c(%esp)
 804a293:	89 04 24             	mov    %eax,(%esp)
 804a296:	65 a1 14 00 00 00    	mov    %gs:0x14,%eax
 804a29c:	89 84 24 8c 40 00 00 	mov    %eax,0x408c(%esp)
 804a2a3:	31 c0                	xor    %eax,%eax
 804a2a5:	85 f6                	test   %esi,%esi
 804a2a7:	89 54 24 04          	mov    %edx,0x4(%esp)
 804a2ab:	0f 84 d1 0a 00 00    	je     804ad82 
 804a2b1:	e8 5a ee ff ff       	call   8049110 
 804a2b6:	83 f8 01             	cmp    $0x1,%eax
 804a2b9:	0f 86 9a 05 00 00    	jbe    804a859 
 804a2bf:	0f b6 83 b6 01 00 00 	movzbl 0x1b6(%ebx),%eax
 804a2c6:	0f b6 b3 b5 01 00 00 	movzbl 0x1b5(%ebx),%esi
 804a2cd:	89 c2                	mov    %eax,%edx
 804a2cf:	89 44 24 64          	mov    %eax,0x64(%esp)
 804a2d3:	80 bb b7 01 00 00 00 	cmpb   $0x0,0x1b7(%ebx)
 804a2da:	0f 85 00 01 00 00    	jne    804a3e0 
 804a2e0:	0f b6 bb b4 01 00 00 	movzbl 0x1b4(%ebx),%edi
 804a2e7:	89 f1                	mov    %esi,%ecx
 804a2e9:	38 d1                	cmp    %dl,%cl
 804a2eb:	89 f8                	mov    %edi,%eax
 804a2ed:	0f 86 31 06 00 00    	jbe    804a924 
 804a2f3:	89 f9                	mov    %edi,%ecx
 804a2f5:	0a 8b b8 01 00 00    	or     0x1b8(%ebx),%cl
 804a2fb:	0f 85 ec 0b 00 00    	jne    804aeed 
 804a301:	31 c0                	xor    %eax,%eax
 804a303:	83 e7 01             	and    $0x1,%edi
 804a306:	0f 85 74 02 00 00    	jne    804a580 
 804a30c:	84 c9                	test   %cl,%cl
 804a30e:	0f 85 6c 02 00 00    	jne    804a580 
 804a314:	8b 45 00             	mov    0x0(%ebp),%eax
 804a317:	85 c0                	test   %eax,%eax
 804a319:	7e 18                	jle    804a333 
 804a31b:	8d 45 04             	lea    0x4(%ebp),%eax
 804a31e:	83 ec 04             	sub    $0x4,%esp
 804a321:	50                   	push   %eax
 804a322:	ff 74 24 4c          	pushl  0x4c(%esp)
 804a326:	6a 03                	push   $0x3
 804a328:	e8 d3 ed ff ff       	call   8049100 
 804a32d:	83 c4 10             	add    $0x10,%esp
 804a330:	89 45 00             	mov    %eax,0x0(%ebp)
 804a333:	85 c0                	test   %eax,%eax
 804a335:	0f 85 d3 07 00 00    	jne    804ab0e 
 804a33b:	8b 45 14             	mov    0x14(%ebp),%eax
 804a33e:	25 00 d0 00 00       	and    $0xd000,%eax
 804a343:	3d 00 80 00 00       	cmp    $0x8000,%eax
 804a348:	0f 85 c0 07 00 00    	jne    804ab0e 
 804a34e:	8b 55 34             	mov    0x34(%ebp),%edx
 804a351:	8b 4d 30             	mov    0x30(%ebp),%ecx
 804a354:	85 d2                	test   %edx,%edx
 804a356:	0f 88 b2 07 00 00    	js     804ab0e 
 804a35c:	8b 45 38             	mov    0x38(%ebp),%eax
 804a35f:	be 01 02 00 00       	mov    $0x201,%esi
 804a364:	8d 50 ff             	lea    -0x1(%eax),%edx
 804a367:	81 fa ff ff ff 1f    	cmp    $0x1fffffff,%edx
 804a36d:	77 03                	ja     804a372 
 804a36f:	8d 70 01             	lea    0x1(%eax),%esi
 804a372:	89 c8                	mov    %ecx,%eax
 804a374:	31 d2                	xor    %edx,%edx
 804a376:	31 ff                	xor    %edi,%edi
 804a378:	f7 f6                	div    %esi
 804a37a:	8b 44 24 04          	mov    0x4(%esp),%eax
 804a37e:	29 d1                	sub    %edx,%ecx
 804a380:	85 c0                	test   %eax,%eax
 804a382:	89 cd                	mov    %ecx,%ebp
 804a384:	89 ce                	mov    %ecx,%esi
 804a386:	0f 88 36 0b 00 00    	js     804aec2 
 804a38c:	8b 54 24 04          	mov    0x4(%esp),%edx
 804a390:	8b 04 24             	mov    (%esp),%eax
 804a393:	85 d2                	test   %edx,%edx
 804a395:	0f 88 73 07 00 00    	js     804ab0e 
 804a39b:	83 fa 00             	cmp    $0x0,%edx
 804a39e:	7c 0e                	jl     804a3ae 
 804a3a0:	0f 8f 68 07 00 00    	jg     804ab0e 
 804a3a6:	39 e8                	cmp    %ebp,%eax
 804a3a8:	0f 83 60 07 00 00    	jae    804ab0e 
 804a3ae:	6a 01                	push   $0x1
 804a3b0:	57                   	push   %edi
 804a3b1:	56                   	push   %esi
 804a3b2:	ff 74 24 50          	pushl  0x50(%esp)
 804a3b6:	e8 95 ef ff ff       	call   8049350 
 804a3bb:	83 c4 10             	add    $0x10,%esp
 804a3be:	85 d2                	test   %edx,%edx
 804a3c0:	0f 88 48 07 00 00    	js     804ab0e 
 804a3c6:	2b 34 24             	sub    (%esp),%esi
 804a3c9:	1b 7c 24 04          	sbb    0x4(%esp),%edi
 804a3cd:	89 74 24 48          	mov    %esi,0x48(%esp)
 804a3d1:	89 7c 24 4c          	mov    %edi,0x4c(%esp)
 804a3d5:	e9 44 07 00 00       	jmp    804ab1e 
 804a3da:	8d b6 00 00 00 00    	lea    0x0(%esi),%esi
 804a3e0:	88 54 24 08          	mov    %dl,0x8(%esp)
 804a3e4:	83 ec 08             	sub    $0x8,%esp
 804a3e7:	6a 02                	push   $0x2
 804a3e9:	6a 00                	push   $0x0
 804a3eb:	6a 00                	push   $0x0
 804a3ed:	6a 00                	push   $0x0
 804a3ef:	6a 00                	push   $0x0
 804a3f1:	ff 74 24 60          	pushl  0x60(%esp)
 804a3f5:	e8 06 11 00 00       	call   804b500 
 804a3fa:	83 c4 20             	add    $0x20,%esp
 804a3fd:	0f b6 54 24 08       	movzbl 0x8(%esp),%edx
 804a402:	89 f0                	mov    %esi,%eax
 804a404:	38 d0                	cmp    %dl,%al
 804a406:	0f 87 57 01 00 00    	ja     804a563 
 804a40c:	e8 ff ec ff ff       	call   8049110 
 804a411:	83 f8 01             	cmp    $0x1,%eax
 804a414:	0f 86 4e 05 00 00    	jbe    804a968 
 804a41a:	8d 84 24 8b 00 00 00 	lea    0x8b(%esp),%eax
 804a421:	c7 84 24 80 00 00 00 	movl   $0x0,0x80(%esp)
 804a428:	00 00 00 00 
 804a42c:	c7 84 24 84 00 00 00 	movl   $0x0,0x84(%esp)
 804a433:	00 00 00 00 
 804a437:	31 ed                	xor    %ebp,%ebp
 804a439:	31 c9                	xor    %ecx,%ecx
 804a43b:	c7 44 24 18 00 00 00 	movl   $0x0,0x18(%esp)
 804a442:	00 
 804a443:	89 44 24 34          	mov    %eax,0x34(%esp)
 804a447:	8d 84 24 80 00 00 00 	lea    0x80(%esp),%eax
 804a44e:	c7 44 24 1c 00 00 00 	movl   $0x0,0x1c(%esp)
 804a455:	00 
 804a456:	c6 44 24 08 00       	movb   $0x0,0x8(%esp)
 804a45b:	c7 44 24 60 00 00 00 	movl   $0x0,0x60(%esp)
 804a462:	00 
 804a463:	89 44 24 10          	mov    %eax,0x10(%esp)
 804a467:	8d 83 a0 b4 ff ff    	lea    -0x4b60(%ebx),%eax
 804a46d:	c7 44 24 58 00 00 00 	movl   $0x0,0x58(%esp)
 804a474:	00 
 804a475:	c7 44 24 48 00 00 00 	movl   $0x0,0x48(%esp)
 804a47c:	00 
 804a47d:	c7 44 24 4c 00 00 00 	movl   $0x0,0x4c(%esp)
 804a484:	00 
 804a485:	c7 44 24 28 00 00 00 	movl   $0x0,0x28(%esp)
 804a48c:	00 
 804a48d:	c7 44 24 2c 00 00 00 	movl   $0x0,0x2c(%esp)
 804a494:	00 
 804a495:	c7 44 24 38 00 00 00 	movl   $0x0,0x38(%esp)
 804a49c:	00 
 804a49d:	c7 44 24 3c 00 00 00 	movl   $0x0,0x3c(%esp)
 804a4a4:	00 
 804a4a5:	c7 44 24 20 00 00 00 	movl   $0x0,0x20(%esp)
 804a4ac:	00 
 804a4ad:	c7 44 24 24 00 00 00 	movl   $0x0,0x24(%esp)
 804a4b4:	00 
 804a4b5:	89 44 24 40          	mov    %eax,0x40(%esp)
 804a4b9:	8d b4 26 00 00 00 00 	lea    0x0(%esi,%eiz,1),%esi
 804a4c0:	b8 00 40 00 00       	mov    $0x4000,%eax
 804a4c5:	88 0c 24             	mov    %cl,(%esp)
 804a4c8:	83 ec 04             	sub    $0x4,%esp
 804a4cb:	29 e8                	sub    %ebp,%eax
 804a4cd:	50                   	push   %eax
 804a4ce:	8b 44 24 3c          	mov    0x3c(%esp),%eax
 804a4d2:	01 e8                	add    %ebp,%eax
 804a4d4:	50                   	push   %eax
 804a4d5:	ff 74 24 50          	pushl  0x50(%esp)
 804a4d9:	e8 f2 30 00 00       	call   804d5d0 
 804a4de:	83 c4 10             	add    $0x10,%esp
 804a4e1:	85 c0                	test   %eax,%eax
 804a4e3:	0f b6 0c 24          	movzbl (%esp),%ecx
 804a4e7:	0f 84 0b 08 00 00    	je     804acf8 
 804a4ed:	83 f8 ff             	cmp    $0xffffffff,%eax
 804a4f0:	0f 84 57 08 00 00    	je     804ad4d 
 804a4f6:	8b 74 24 34          	mov    0x34(%esp),%esi
 804a4fa:	31 ff                	xor    %edi,%edi
 804a4fc:	01 44 24 48          	add    %eax,0x48(%esp)
 804a500:	11 7c 24 4c          	adc    %edi,0x4c(%esp)
 804a504:	88 0c 24             	mov    %cl,(%esp)
 804a507:	01 c5                	add    %eax,%ebp
 804a509:	8d b4 26 00 00 00 00 	lea    0x0(%esi,%eiz,1),%esi
 804a510:	80 3c 24 00          	cmpb   $0x0,(%esp)
 804a514:	0f 85 a6 06 00 00    	jne    804abc0 
 804a51a:	0f be 16             	movsbl (%esi),%edx
 804a51d:	8b 7c 24 40          	mov    0x40(%esp),%edi
 804a521:	89 d0                	mov    %edx,%eax
 804a523:	c0 e8 05             	shr    $0x5,%al
 804a526:	0f b6 c0             	movzbl %al,%eax
 804a529:	8b 04 87             	mov    (%edi,%eax,4),%eax
 804a52c:	0f a3 d0             	bt     %edx,%eax
 804a52f:	0f 83 8b 06 00 00    	jae    804abc0 
 804a535:	89 54 24 7c          	mov    %edx,0x7c(%esp)
 804a539:	bf 01 00 00 00       	mov    $0x1,%edi
 804a53e:	8d 42 f7             	lea    -0x9(%edx),%eax
 804a541:	01 fe                	add    %edi,%esi
 804a543:	29 fd                	sub    %edi,%ebp
 804a545:	83 44 24 28 01       	addl   $0x1,0x28(%esp)
 804a54a:	83 54 24 2c 00       	adcl   $0x0,0x2c(%esp)
 804a54f:	83 f8 17             	cmp    $0x17,%eax
 804a552:	0f 87 89 09 00 00    	ja     804aee1 
 804a558:	8b bc 83 ec ad ff ff 	mov    -0x5214(%ebx,%eax,4),%edi
 804a55f:	01 df                	add    %ebx,%edi
 804a561:	ff e7                	jmp    *%edi
 804a563:	bf 01 00 00 00       	mov    $0x1,%edi
 804a568:	b8 01 00 00 00       	mov    $0x1,%eax
 804a56d:	83 e7 01             	and    $0x1,%edi
 804a570:	0f b6 8b b8 01 00 00 	movzbl 0x1b8(%ebx),%ecx
 804a577:	0f 84 8f fd ff ff    	je     804a30c 
 804a57d:	8d 76 00             	lea    0x0(%esi),%esi
 804a580:	83 f0 01             	xor    $0x1,%eax
 804a583:	38 c2                	cmp    %al,%dl
 804a585:	0f 83 81 fe ff ff    	jae    804a40c 
 804a58b:	8d 84 24 8b 00 00 00 	lea    0x8b(%esp),%eax
 804a592:	c6 44 24 08 00       	movb   $0x0,0x8(%esp)
 804a597:	c7 44 24 48 00 00 00 	movl   $0x0,0x48(%esp)
 804a59e:	00 
 804a59f:	c7 44 24 4c 00 00 00 	movl   $0x0,0x4c(%esp)
 804a5a6:	00 
 804a5a7:	c7 44 24 20 00 00 00 	movl   $0x0,0x20(%esp)
 804a5ae:	00 
 804a5af:	c7 44 24 24 00 00 00 	movl   $0x0,0x24(%esp)
 804a5b6:	00 
 804a5b7:	89 44 24 34          	mov    %eax,0x34(%esp)
 804a5bb:	90                   	nop
 804a5bc:	8d 74 26 00          	lea    0x0(%esi,%eiz,1),%esi
 804a5c0:	83 ec 04             	sub    $0x4,%esp
 804a5c3:	68 00 40 00 00       	push   $0x4000
 804a5c8:	ff 74 24 3c          	pushl  0x3c(%esp)
 804a5cc:	ff 74 24 50          	pushl  0x50(%esp)
 804a5d0:	e8 fb 2f 00 00       	call   804d5d0 
 804a5d5:	89 44 24 10          	mov    %eax,0x10(%esp)
 804a5d9:	83 c4 10             	add    $0x10,%esp
 804a5dc:	85 c0                	test   %eax,%eax
 804a5de:	0f 84 f7 00 00 00    	je     804a6db 
 804a5e4:	83 3c 24 ff          	cmpl   $0xffffffff,(%esp)
 804a5e8:	0f 84 08 02 00 00    	je     804a7f6 
 804a5ee:	8b 44 24 34          	mov    0x34(%esp),%eax
 804a5f2:	8b 0c 24             	mov    (%esp),%ecx
 804a5f5:	31 d2                	xor    %edx,%edx
 804a5f7:	01 4c 24 48          	add    %ecx,0x48(%esp)
 804a5fb:	11 54 24 4c          	adc    %edx,0x4c(%esp)
 804a5ff:	89 c6                	mov    %eax,%esi
 804a601:	01 ce                	add    %ecx,%esi
 804a603:	80 7c 24 08 00       	cmpb   $0x0,0x8(%esp)
 804a608:	0f 84 92 00 00 00    	je     804a6a0 
 804a60e:	8b 7c 24 20          	mov    0x20(%esp),%edi
 804a612:	8b 6c 24 24          	mov    0x24(%esp),%ebp
 804a616:	eb 11                	jmp    804a629 
 804a618:	90                   	nop
 804a619:	8d b4 26 00 00 00 00 	lea    0x0(%esi,%eiz,1),%esi
 804a620:	83 c0 01             	add    $0x1,%eax
 804a623:	83 c7 01             	add    $0x1,%edi
 804a626:	83 d5 00             	adc    $0x0,%ebp
 804a629:	89 f2                	mov    %esi,%edx
 804a62b:	83 ec 04             	sub    $0x4,%esp
 804a62e:	29 c2                	sub    %eax,%edx
 804a630:	52                   	push   %edx
 804a631:	6a 0a                	push   $0xa
 804a633:	50                   	push   %eax
 804a634:	e8 77 ec ff ff       	call   80492b0 
 804a639:	83 c4 10             	add    $0x10,%esp
 804a63c:	85 c0                	test   %eax,%eax
 804a63e:	75 e0                	jne    804a620 
 804a640:	89 f8                	mov    %edi,%eax
 804a642:	2b 44 24 20          	sub    0x20(%esp),%eax
 804a646:	89 ea                	mov    %ebp,%edx
 804a648:	1b 54 24 24          	sbb    0x24(%esp),%edx
 804a64c:	89 44 24 08          	mov    %eax,0x8(%esp)
 804a650:	b8 89 88 88 88       	mov    $0x88888889,%eax
 804a655:	89 54 24 0c          	mov    %edx,0xc(%esp)
 804a659:	f7 24 24             	mull   (%esp)
 804a65c:	b8 01 00 00 00       	mov    $0x1,%eax
 804a661:	c1 ea 03             	shr    $0x3,%edx
 804a664:	83 7c 24 0c 00       	cmpl   $0x0,0xc(%esp)
 804a669:	77 1d                	ja     804a688 
 804a66b:	39 54 24 08          	cmp    %edx,0x8(%esp)
 804a66f:	77 17                	ja     804a688 
 804a671:	88 44 24 08          	mov    %al,0x8(%esp)
 804a675:	89 7c 24 20          	mov    %edi,0x20(%esp)
 804a679:	89 6c 24 24          	mov    %ebp,0x24(%esp)
 804a67d:	e9 3e ff ff ff       	jmp    804a5c0 
 804a682:	8d b6 00 00 00 00    	lea    0x0(%esi),%esi
 804a688:	31 c0                	xor    %eax,%eax
 804a68a:	89 7c 24 20          	mov    %edi,0x20(%esp)
 804a68e:	89 6c 24 24          	mov    %ebp,0x24(%esp)
 804a692:	88 44 24 08          	mov    %al,0x8(%esp)
 804a696:	e9 25 ff ff ff       	jmp    804a5c0 
 804a69b:	90                   	nop
 804a69c:	8d 74 26 00          	lea    0x0(%esi,%eiz,1),%esi
 804a6a0:	8b 44 24 34          	mov    0x34(%esp),%eax
 804a6a4:	39 c6                	cmp    %eax,%esi
 804a6a6:	0f 84 a3 01 00 00    	je     804a84f 
 804a6ac:	8b 7c 24 20          	mov    0x20(%esp),%edi
 804a6b0:	8b 6c 24 24          	mov    0x24(%esp),%ebp
 804a6b4:	89 c1                	mov    %eax,%ecx
 804a6b6:	8d 76 00             	lea    0x0(%esi),%esi
 804a6b9:	8d bc 27 00 00 00 00 	lea    0x0(%edi,%eiz,1),%edi
 804a6c0:	83 c1 01             	add    $0x1,%ecx
 804a6c3:	31 c0                	xor    %eax,%eax
 804a6c5:	80 79 ff 0a          	cmpb   $0xa,-0x1(%ecx)
 804a6c9:	0f 94 c0             	sete   %al
 804a6cc:	31 d2                	xor    %edx,%edx
 804a6ce:	01 c7                	add    %eax,%edi
 804a6d0:	11 d5                	adc    %edx,%ebp
 804a6d2:	39 ce                	cmp    %ecx,%esi
 804a6d4:	75 ea                	jne    804a6c0 
 804a6d6:	e9 65 ff ff ff       	jmp    804a640 
 804a6db:	c7 44 24 10 00 00 00 	movl   $0x0,0x10(%esp)
 804a6e2:	00 
 804a6e3:	c7 44 24 14 00 00 00 	movl   $0x0,0x14(%esp)
 804a6ea:	00 
 804a6eb:	31 f6                	xor    %esi,%esi
 804a6ed:	c7 44 24 28 00 00 00 	movl   $0x0,0x28(%esp)
 804a6f4:	00 
 804a6f5:	c7 44 24 2c 00 00 00 	movl   $0x0,0x2c(%esp)
 804a6fc:	00 
 804a6fd:	31 ff                	xor    %edi,%edi
 804a6ff:	c6 44 24 34 01       	movb   $0x1,0x34(%esp)
 804a704:	0f b6 83 b6 01 00 00 	movzbl 0x1b6(%ebx),%eax
 804a70b:	39 44 24 64          	cmp    %eax,0x64(%esp)
 804a70f:	7d 10                	jge    804a721 
 804a711:	8b 44 24 48          	mov    0x48(%esp),%eax
 804a715:	8b 54 24 4c          	mov    0x4c(%esp),%edx
 804a719:	89 44 24 28          	mov    %eax,0x28(%esp)
 804a71d:	89 54 24 2c          	mov    %edx,0x2c(%esp)
 804a721:	83 ec 0c             	sub    $0xc,%esp
 804a724:	ff 74 24 74          	pushl  0x74(%esp)
 804a728:	ff 74 24 24          	pushl  0x24(%esp)
 804a72c:	ff 74 24 24          	pushl  0x24(%esp)
 804a730:	ff 74 24 64          	pushl  0x64(%esp)
 804a734:	ff 74 24 64          	pushl  0x64(%esp)
 804a738:	ff 74 24 4c          	pushl  0x4c(%esp)
 804a73c:	ff 74 24 4c          	pushl  0x4c(%esp)
 804a740:	57                   	push   %edi
 804a741:	56                   	push   %esi
 804a742:	8b 54 24 54          	mov    0x54(%esp),%edx
 804a746:	8b 44 24 50          	mov    0x50(%esp),%eax
 804a74a:	e8 c1 f8 ff ff       	call   804a010 
 804a74f:	8b 54 24 50          	mov    0x50(%esp),%edx
 804a753:	01 93 e0 01 00 00    	add    %edx,0x1e0(%ebx)
 804a759:	8b 4c 24 54          	mov    0x54(%esp),%ecx
 804a75d:	11 8b e4 01 00 00    	adc    %ecx,0x1e4(%ebx)
 804a763:	01 b3 d8 01 00 00    	add    %esi,0x1d8(%ebx)
 804a769:	8b 74 24 58          	mov    0x58(%esp),%esi
 804a76d:	11 bb dc 01 00 00    	adc    %edi,0x1dc(%ebx)
 804a773:	01 b3 d0 01 00 00    	add    %esi,0x1d0(%ebx)
 804a779:	8b 7c 24 5c          	mov    0x5c(%esp),%edi
 804a77d:	8b 74 24 78          	mov    0x78(%esp),%esi
 804a781:	11 bb d4 01 00 00    	adc    %edi,0x1d4(%ebx)
 804a787:	01 b3 c8 01 00 00    	add    %esi,0x1c8(%ebx)
 804a78d:	8b 7c 24 7c          	mov    0x7c(%esp),%edi
 804a791:	11 bb cc 01 00 00    	adc    %edi,0x1cc(%ebx)
 804a797:	83 c4 30             	add    $0x30,%esp
 804a79a:	8b 44 24 10          	mov    0x10(%esp),%eax
 804a79e:	8b 54 24 14          	mov    0x14(%esp),%edx
 804a7a2:	3b 93 c4 01 00 00    	cmp    0x1c4(%ebx),%edx
 804a7a8:	72 0e                	jb     804a7b8 
 804a7aa:	77 34                	ja     804a7e0 
 804a7ac:	3b 83 c0 01 00 00    	cmp    0x1c0(%ebx),%eax
 804a7b2:	77 2c                	ja     804a7e0 
 804a7b4:	8d 74 26 00          	lea    0x0(%esi,%eiz,1),%esi
 804a7b8:	8b 9c 24 8c 40 00 00 	mov    0x408c(%esp),%ebx
 804a7bf:	65 33 1d 14 00 00 00 	xor    %gs:0x14,%ebx
 804a7c6:	0f b6 44 24 34       	movzbl 0x34(%esp),%eax
 804a7cb:	0f 85 17 07 00 00    	jne    804aee8 
 804a7d1:	81 c4 9c 40 00 00    	add    $0x409c,%esp
 804a7d7:	5b                   	pop    %ebx
 804a7d8:	5e                   	pop    %esi
 804a7d9:	5f                   	pop    %edi
 804a7da:	5d                   	pop    %ebp
 804a7db:	c3                   	ret    
 804a7dc:	8d 74 26 00          	lea    0x0(%esi,%eiz,1),%esi
 804a7e0:	8b 44 24 10          	mov    0x10(%esp),%eax
 804a7e4:	8b 54 24 14          	mov    0x14(%esp),%edx
 804a7e8:	89 83 c0 01 00 00    	mov    %eax,0x1c0(%ebx)
 804a7ee:	89 93 c4 01 00 00    	mov    %edx,0x1c4(%ebx)
 804a7f4:	eb c2                	jmp    804a7b8 
 804a7f6:	83 ec 04             	sub    $0x4,%esp
 804a7f9:	31 ff                	xor    %edi,%edi
 804a7fb:	ff 74 24 70          	pushl  0x70(%esp)
 804a7ff:	6a 03                	push   $0x3
 804a801:	6a 00                	push   $0x0
 804a803:	e8 d8 27 00 00       	call   804cfe0 
 804a808:	89 c6                	mov    %eax,%esi
 804a80a:	e8 91 ea ff ff       	call   80492a0 
 804a80f:	8d 93 81 b4 ff ff    	lea    -0x4b7f(%ebx),%edx
 804a815:	56                   	push   %esi
 804a816:	31 f6                	xor    %esi,%esi
 804a818:	52                   	push   %edx
 804a819:	ff 30                	pushl  (%eax)
 804a81b:	6a 00                	push   $0x0
 804a81d:	e8 2e e9 ff ff       	call   8049150 
 804a822:	83 c4 20             	add    $0x20,%esp
 804a825:	c7 44 24 10 00 00 00 	movl   $0x0,0x10(%esp)
 804a82c:	00 
 804a82d:	c7 44 24 14 00 00 00 	movl   $0x0,0x14(%esp)
 804a834:	00 
 804a835:	c7 44 24 28 00 00 00 	movl   $0x0,0x28(%esp)
 804a83c:	00 
 804a83d:	c7 44 24 2c 00 00 00 	movl   $0x0,0x2c(%esp)
 804a844:	00 
 804a845:	c6 44 24 34 00       	movb   $0x0,0x34(%esp)
 804a84a:	e9 b5 fe ff ff       	jmp    804a704 
 804a84f:	c6 44 24 08 01       	movb   $0x1,0x8(%esp)
 804a854:	e9 67 fd ff ff       	jmp    804a5c0 
 804a859:	80 bb b5 01 00 00 00 	cmpb   $0x0,0x1b5(%ebx)
 804a860:	be 01 00 00 00       	mov    $0x1,%esi
 804a865:	0f 84 e7 00 00 00    	je     804a952 
 804a86b:	c7 44 24 64 00 00 00 	movl   $0x0,0x64(%esp)
 804a872:	00 
 804a873:	31 d2                	xor    %edx,%edx
 804a875:	e9 59 fa ff ff       	jmp    804a2d3 
 804a87a:	8d b6 00 00 00 00    	lea    0x0(%esi),%esi
 804a880:	83 44 24 20 01       	addl   $0x1,0x20(%esp)
 804a885:	83 54 24 24 00       	adcl   $0x0,0x24(%esp)
 804a88a:	8b 54 24 1c          	mov    0x1c(%esp),%edx
 804a88e:	39 54 24 58          	cmp    %edx,0x58(%esp)
 804a892:	8b 44 24 18          	mov    0x18(%esp),%eax
 804a896:	77 18                	ja     804a8b0 
 804a898:	72 06                	jb     804a8a0 
 804a89a:	39 44 24 60          	cmp    %eax,0x60(%esp)
 804a89e:	73 10                	jae    804a8b0 
 804a8a0:	8b 44 24 18          	mov    0x18(%esp),%eax
 804a8a4:	8b 54 24 1c          	mov    0x1c(%esp),%edx
 804a8a8:	89 44 24 60          	mov    %eax,0x60(%esp)
 804a8ac:	89 54 24 58          	mov    %edx,0x58(%esp)
 804a8b0:	c7 44 24 18 00 00 00 	movl   $0x0,0x18(%esp)
 804a8b7:	00 
 804a8b8:	c7 44 24 1c 00 00 00 	movl   $0x0,0x1c(%esp)
 804a8bf:	00 
 804a8c0:	0f b6 44 24 08       	movzbl 0x8(%esp),%eax
 804a8c5:	31 d2                	xor    %edx,%edx
 804a8c7:	c6 44 24 08 00       	movb   $0x0,0x8(%esp)
 804a8cc:	01 44 24 38          	add    %eax,0x38(%esp)
 804a8d0:	11 54 24 3c          	adc    %edx,0x3c(%esp)
 804a8d4:	85 ed                	test   %ebp,%ebp
 804a8d6:	0f 85 34 fc ff ff    	jne    804a510 
 804a8dc:	0f b6 0c 24          	movzbl (%esp),%ecx
 804a8e0:	e9 db fb ff ff       	jmp    804a4c0 
 804a8e5:	8d 76 00             	lea    0x0(%esi),%esi
 804a8e8:	8b 44 24 18          	mov    0x18(%esp),%eax
 804a8ec:	8b 54 24 1c          	mov    0x1c(%esp),%edx
 804a8f0:	89 c1                	mov    %eax,%ecx
 804a8f2:	89 54 24 54          	mov    %edx,0x54(%esp)
 804a8f6:	8b 54 24 54          	mov    0x54(%esp),%edx
 804a8fa:	83 e1 f8             	and    $0xfffffff8,%ecx
 804a8fd:	89 4c 24 50          	mov    %ecx,0x50(%esp)
 804a901:	8b 44 24 50          	mov    0x50(%esp),%eax
 804a905:	83 c0 08             	add    $0x8,%eax
 804a908:	83 d2 00             	adc    $0x0,%edx
 804a90b:	89 44 24 18          	mov    %eax,0x18(%esp)
 804a90f:	89 54 24 1c          	mov    %edx,0x1c(%esp)
 804a913:	eb ab                	jmp    804a8c0 
 804a915:	8d 76 00             	lea    0x0(%esi),%esi
 804a918:	83 44 24 18 01       	addl   $0x1,0x18(%esp)
 804a91d:	83 54 24 1c 00       	adcl   $0x0,0x1c(%esp)
 804a922:	eb 9c                	jmp    804a8c0 
 804a924:	88 54 24 08          	mov    %dl,0x8(%esp)
 804a928:	88 04 24             	mov    %al,(%esp)
 804a92b:	83 ec 08             	sub    $0x8,%esp
 804a92e:	6a 02                	push   $0x2
 804a930:	6a 00                	push   $0x0
 804a932:	6a 00                	push   $0x0
 804a934:	6a 00                	push   $0x0
 804a936:	6a 00                	push   $0x0
 804a938:	ff 74 24 60          	pushl  0x60(%esp)
 804a93c:	e8 bf 0b 00 00       	call   804b500 
 804a941:	83 c4 20             	add    $0x20,%esp
 804a944:	0f b6 04 24          	movzbl (%esp),%eax
 804a948:	0f b6 54 24 08       	movzbl 0x8(%esp),%edx
 804a94d:	e9 2e fc ff ff       	jmp    804a580 
 804a952:	0f b6 b3 b6 01 00 00 	movzbl 0x1b6(%ebx),%esi
 804a959:	c7 44 24 64 00 00 00 	movl   $0x0,0x64(%esp)
 804a960:	00 
 804a961:	31 d2                	xor    %edx,%edx
 804a963:	e9 6b f9 ff ff       	jmp    804a2d3 
 804a968:	8d 84 24 8b 00 00 00 	lea    0x8b(%esp),%eax
 804a96f:	31 c9                	xor    %ecx,%ecx
 804a971:	31 ff                	xor    %edi,%edi
 804a973:	31 ed                	xor    %ebp,%ebp
 804a975:	c7 04 24 00 00 00 00 	movl   $0x0,(%esp)
 804a97c:	c7 44 24 04 00 00 00 	movl   $0x0,0x4(%esp)
 804a983:	00 
 804a984:	c7 44 24 50 00 00 00 	movl   $0x0,0x50(%esp)
 804a98b:	00 
 804a98c:	c7 44 24 28 00 00 00 	movl   $0x0,0x28(%esp)
 804a993:	00 
 804a994:	89 ca                	mov    %ecx,%edx
 804a996:	c7 44 24 48 00 00 00 	movl   $0x0,0x48(%esp)
 804a99d:	00 
 804a99e:	c7 44 24 4c 00 00 00 	movl   $0x0,0x4c(%esp)
 804a9a5:	00 
 804a9a6:	c7 44 24 20 00 00 00 	movl   $0x0,0x20(%esp)
 804a9ad:	00 
 804a9ae:	c7 44 24 24 00 00 00 	movl   $0x0,0x24(%esp)
 804a9b5:	00 
 804a9b6:	89 44 24 34          	mov    %eax,0x34(%esp)
 804a9ba:	89 7c 24 10          	mov    %edi,0x10(%esp)
 804a9be:	89 6c 24 14          	mov    %ebp,0x14(%esp)
 804a9c2:	8d b6 00 00 00 00    	lea    0x0(%esi),%esi
 804a9c8:	88 54 24 08          	mov    %dl,0x8(%esp)
 804a9cc:	83 ec 04             	sub    $0x4,%esp
 804a9cf:	68 00 40 00 00       	push   $0x4000
 804a9d4:	ff 74 24 3c          	pushl  0x3c(%esp)
 804a9d8:	ff 74 24 50          	pushl  0x50(%esp)
 804a9dc:	e8 ef 2b 00 00       	call   804d5d0 
 804a9e1:	83 c4 10             	add    $0x10,%esp
 804a9e4:	85 c0                	test   %eax,%eax
 804a9e6:	0f b6 54 24 08       	movzbl 0x8(%esp),%edx
 804a9eb:	0f 84 c0 04 00 00    	je     804aeb1 
 804a9f1:	83 f8 ff             	cmp    $0xffffffff,%eax
 804a9f4:	0f 84 18 04 00 00    	je     804ae12 
 804a9fa:	8b 4c 24 34          	mov    0x34(%esp),%ecx
 804a9fe:	31 ff                	xor    %edi,%edi
 804aa00:	01 44 24 48          	add    %eax,0x48(%esp)
 804aa04:	11 7c 24 4c          	adc    %edi,0x4c(%esp)
 804aa08:	89 ce                	mov    %ecx,%esi
 804aa0a:	01 c8                	add    %ecx,%eax
 804aa0c:	83 c6 01             	add    $0x1,%esi
 804aa0f:	0f b6 4e ff          	movzbl -0x1(%esi),%ecx
 804aa13:	89 44 24 08          	mov    %eax,0x8(%esp)
 804aa17:	8d 41 f7             	lea    -0x9(%ecx),%eax
 804aa1a:	3c 17                	cmp    $0x17,%al
 804aa1c:	77 76                	ja     804aa94 
 804aa1e:	66 90                	xchg   %ax,%ax
 804aa20:	0f b6 c0             	movzbl %al,%eax
 804aa23:	8b bc 83 4c ae ff ff 	mov    -0x51b4(%ebx,%eax,4),%edi
 804aa2a:	01 df                	add    %ebx,%edi
 804aa2c:	ff e7                	jmp    *%edi
 804aa2e:	66 90                	xchg   %ax,%ax
 804aa30:	83 44 24 20 01       	addl   $0x1,0x20(%esp)
 804aa35:	83 54 24 24 00       	adcl   $0x0,0x24(%esp)
 804aa3a:	8b 6c 24 04          	mov    0x4(%esp),%ebp
 804aa3e:	39 6c 24 28          	cmp    %ebp,0x28(%esp)
 804aa42:	8b 3c 24             	mov    (%esp),%edi
 804aa45:	77 17                	ja     804aa5e 
 804aa47:	72 06                	jb     804aa4f 
 804aa49:	39 7c 24 50          	cmp    %edi,0x50(%esp)
 804aa4d:	73 0f                	jae    804aa5e 
 804aa4f:	8b 3c 24             	mov    (%esp),%edi
 804aa52:	8b 6c 24 04          	mov    0x4(%esp),%ebp
 804aa56:	89 7c 24 50          	mov    %edi,0x50(%esp)
 804aa5a:	89 6c 24 28          	mov    %ebp,0x28(%esp)
 804aa5e:	c7 04 24 00 00 00 00 	movl   $0x0,(%esp)
 804aa65:	c7 44 24 04 00 00 00 	movl   $0x0,0x4(%esp)
 804aa6c:	00 
 804aa6d:	0f b6 c2             	movzbl %dl,%eax
 804aa70:	31 d2                	xor    %edx,%edx
 804aa72:	01 44 24 10          	add    %eax,0x10(%esp)
 804aa76:	11 54 24 14          	adc    %edx,0x14(%esp)
 804aa7a:	31 d2                	xor    %edx,%edx
 804aa7c:	3b 74 24 08          	cmp    0x8(%esp),%esi
 804aa80:	0f 84 42 ff ff ff    	je     804a9c8 
 804aa86:	83 c6 01             	add    $0x1,%esi
 804aa89:	0f b6 4e ff          	movzbl -0x1(%esi),%ecx
 804aa8d:	8d 41 f7             	lea    -0x9(%ecx),%eax
 804aa90:	3c 17                	cmp    $0x17,%al
 804aa92:	76 8c                	jbe    804aa20 
 804aa94:	88 54 24 38          	mov    %dl,0x38(%esp)
 804aa98:	88 4c 24 40          	mov    %cl,0x40(%esp)
 804aa9c:	e8 3f e9 ff ff       	call   80493e0 
 804aaa1:	0f b6 4c 24 40       	movzbl 0x40(%esp),%ecx
 804aaa6:	8b 00                	mov    (%eax),%eax
 804aaa8:	0f b6 54 24 38       	movzbl 0x38(%esp),%edx
 804aaad:	0f b7 04 48          	movzwl (%eax,%ecx,2),%eax
 804aab1:	f6 c4 40             	test   $0x40,%ah
 804aab4:	74 c6                	je     804aa7c 
 804aab6:	83 04 24 01          	addl   $0x1,(%esp)
 804aaba:	83 54 24 04 00       	adcl   $0x0,0x4(%esp)
 804aabf:	f6 c4 20             	test   $0x20,%ah
 804aac2:	75 a9                	jne    804aa6d 
 804aac4:	ba 01 00 00 00       	mov    $0x1,%edx
 804aac9:	eb b1                	jmp    804aa7c 
 804aacb:	90                   	nop
 804aacc:	8d 74 26 00          	lea    0x0(%esi,%eiz,1),%esi
 804aad0:	83 04 24 01          	addl   $0x1,(%esp)
 804aad4:	83 54 24 04 00       	adcl   $0x0,0x4(%esp)
 804aad9:	eb 92                	jmp    804aa6d 
 804aadb:	90                   	nop
 804aadc:	8d 74 26 00          	lea    0x0(%esi,%eiz,1),%esi
 804aae0:	8b 3c 24             	mov    (%esp),%edi
 804aae3:	8b 6c 24 04          	mov    0x4(%esp),%ebp
 804aae7:	89 f8                	mov    %edi,%eax
 804aae9:	89 6c 24 1c          	mov    %ebp,0x1c(%esp)
 804aaed:	8b 6c 24 1c          	mov    0x1c(%esp),%ebp
 804aaf1:	83 e0 f8             	and    $0xfffffff8,%eax
 804aaf4:	89 44 24 18          	mov    %eax,0x18(%esp)
 804aaf8:	8b 7c 24 18          	mov    0x18(%esp),%edi
 804aafc:	83 c7 08             	add    $0x8,%edi
 804aaff:	83 d5 00             	adc    $0x0,%ebp
 804ab02:	89 3c 24             	mov    %edi,(%esp)
 804ab05:	89 6c 24 04          	mov    %ebp,0x4(%esp)
 804ab09:	e9 5f ff ff ff       	jmp    804aa6d 
 804ab0e:	c7 44 24 48 00 00 00 	movl   $0x0,0x48(%esp)
 804ab15:	00 
 804ab16:	c7 44 24 4c 00 00 00 	movl   $0x0,0x4c(%esp)
 804ab1d:	00 
 804ab1e:	83 ec 08             	sub    $0x8,%esp
 804ab21:	6a 02                	push   $0x2
 804ab23:	6a 00                	push   $0x0
 804ab25:	6a 00                	push   $0x0
 804ab27:	6a 00                	push   $0x0
 804ab29:	6a 00                	push   $0x0
 804ab2b:	ff 74 24 60          	pushl  0x60(%esp)
 804ab2f:	e8 cc 09 00 00       	call   804b500 
 804ab34:	83 c4 20             	add    $0x20,%esp
 804ab37:	8b 74 24 48          	mov    0x48(%esp),%esi
 804ab3b:	8b 7c 24 4c          	mov    0x4c(%esp),%edi
 804ab3f:	8d 84 24 8b 00 00 00 	lea    0x8b(%esp),%eax
 804ab46:	89 c5                	mov    %eax,%ebp
 804ab48:	eb 15                	jmp    804ab5f 
 804ab4a:	8d b6 00 00 00 00    	lea    0x0(%esi),%esi
 804ab50:	83 f8 ff             	cmp    $0xffffffff,%eax
 804ab53:	0f 84 48 02 00 00    	je     804ada1 
 804ab59:	31 d2                	xor    %edx,%edx
 804ab5b:	01 c6                	add    %eax,%esi
 804ab5d:	11 d7                	adc    %edx,%edi
 804ab5f:	83 ec 04             	sub    $0x4,%esp
 804ab62:	68 00 40 00 00       	push   $0x4000
 804ab67:	55                   	push   %ebp
 804ab68:	ff 74 24 50          	pushl  0x50(%esp)
 804ab6c:	e8 5f 2a 00 00       	call   804d5d0 
 804ab71:	83 c4 10             	add    $0x10,%esp
 804ab74:	85 c0                	test   %eax,%eax
 804ab76:	75 d8                	jne    804ab50 
 804ab78:	89 74 24 48          	mov    %esi,0x48(%esp)
 804ab7c:	89 7c 24 4c          	mov    %edi,0x4c(%esp)
 804ab80:	31 f6                	xor    %esi,%esi
 804ab82:	c7 44 24 10 00 00 00 	movl   $0x0,0x10(%esp)
 804ab89:	00 
 804ab8a:	c7 44 24 14 00 00 00 	movl   $0x0,0x14(%esp)
 804ab91:	00 
 804ab92:	31 ff                	xor    %edi,%edi
 804ab94:	c7 44 24 28 00 00 00 	movl   $0x0,0x28(%esp)
 804ab9b:	00 
 804ab9c:	c7 44 24 2c 00 00 00 	movl   $0x0,0x2c(%esp)
 804aba3:	00 
 804aba4:	c7 44 24 20 00 00 00 	movl   $0x0,0x20(%esp)
 804abab:	00 
 804abac:	c7 44 24 24 00 00 00 	movl   $0x0,0x24(%esp)
 804abb3:	00 
 804abb4:	c6 44 24 34 01       	movb   $0x1,0x34(%esp)
 804abb9:	e9 46 fb ff ff       	jmp    804a704 
 804abbe:	66 90                	xchg   %ax,%ax
 804abc0:	8b 84 24 80 00 00 00 	mov    0x80(%esp),%eax
 804abc7:	8b 94 24 84 00 00 00 	mov    0x84(%esp),%edx
 804abce:	89 04 24             	mov    %eax,(%esp)
 804abd1:	89 54 24 04          	mov    %edx,0x4(%esp)
 804abd5:	ff 74 24 10          	pushl  0x10(%esp)
 804abd9:	55                   	push   %ebp
 804abda:	56                   	push   %esi
 804abdb:	8d 84 24 88 00 00 00 	lea    0x88(%esp),%eax
 804abe2:	50                   	push   %eax
 804abe3:	e8 48 e5 ff ff       	call   8049130 
 804abe8:	83 c4 10             	add    $0x10,%esp
 804abeb:	83 f8 fe             	cmp    $0xfffffffe,%eax
 804abee:	89 c7                	mov    %eax,%edi
 804abf0:	0f 84 ba 00 00 00    	je     804acb0 
 804abf6:	83 f8 ff             	cmp    $0xffffffff,%eax
 804abf9:	0f 84 a1 00 00 00    	je     804aca0 
 804abff:	83 ec 0c             	sub    $0xc,%esp
 804ac02:	ff 74 24 1c          	pushl  0x1c(%esp)
 804ac06:	e8 25 e4 ff ff       	call   8049030 
 804ac0b:	83 c4 10             	add    $0x10,%esp
 804ac0e:	85 c0                	test   %eax,%eax
 804ac10:	0f 94 04 24          	sete   (%esp)
 804ac14:	85 ff                	test   %edi,%edi
 804ac16:	75 78                	jne    804ac90 
 804ac18:	83 c6 01             	add    $0x1,%esi
 804ac1b:	83 ed 01             	sub    $0x1,%ebp
 804ac1e:	83 44 24 28 01       	addl   $0x1,0x28(%esp)
 804ac23:	83 54 24 2c 00       	adcl   $0x0,0x2c(%esp)
 804ac28:	c7 44 24 7c 00 00 00 	movl   $0x0,0x7c(%esp)
 804ac2f:	00 
 804ac30:	31 c0                	xor    %eax,%eax
 804ac32:	31 d2                	xor    %edx,%edx
 804ac34:	89 54 24 5c          	mov    %edx,0x5c(%esp)
 804ac38:	83 ec 0c             	sub    $0xc,%esp
 804ac3b:	50                   	push   %eax
 804ac3c:	e8 8f e4 ff ff       	call   80490d0 
 804ac41:	83 c4 10             	add    $0x10,%esp
 804ac44:	85 c0                	test   %eax,%eax
 804ac46:	8b 54 24 5c          	mov    0x5c(%esp),%edx
 804ac4a:	0f 84 84 fc ff ff    	je     804a8d4 
 804ac50:	83 ec 0c             	sub    $0xc,%esp
 804ac53:	52                   	push   %edx
 804ac54:	e8 a7 e3 ff ff       	call   8049000 
 804ac59:	83 c4 10             	add    $0x10,%esp
 804ac5c:	85 c0                	test   %eax,%eax
 804ac5e:	7e 09                	jle    804ac69 
 804ac60:	99                   	cltd   
 804ac61:	01 44 24 18          	add    %eax,0x18(%esp)
 804ac65:	11 54 24 1c          	adc    %edx,0x1c(%esp)
 804ac69:	83 ec 0c             	sub    $0xc,%esp
 804ac6c:	ff b4 24 88 00 00 00 	pushl  0x88(%esp)
 804ac73:	e8 48 e5 ff ff       	call   80491c0 
 804ac78:	83 c4 10             	add    $0x10,%esp
 804ac7b:	85 c0                	test   %eax,%eax
 804ac7d:	0f 85 3d fc ff ff    	jne    804a8c0 
 804ac83:	c6 44 24 08 01       	movb   $0x1,0x8(%esp)
 804ac88:	e9 47 fc ff ff       	jmp    804a8d4 
 804ac8d:	8d 76 00             	lea    0x0(%esi),%esi
 804ac90:	8b 54 24 7c          	mov    0x7c(%esp),%edx
 804ac94:	e9 a5 f8 ff ff       	jmp    804a53e 
 804ac99:	8d b4 26 00 00 00 00 	lea    0x0(%esi,%eiz,1),%esi
 804aca0:	83 c6 01             	add    $0x1,%esi
 804aca3:	83 ed 01             	sub    $0x1,%ebp
 804aca6:	c6 04 24 01          	movb   $0x1,(%esp)
 804acaa:	e9 25 fc ff ff       	jmp    804a8d4 
 804acaf:	90                   	nop
 804acb0:	8b 04 24             	mov    (%esp),%eax
 804acb3:	8b 54 24 04          	mov    0x4(%esp),%edx
 804acb7:	85 ed                	test   %ebp,%ebp
 804acb9:	89 84 24 80 00 00 00 	mov    %eax,0x80(%esp)
 804acc0:	89 94 24 84 00 00 00 	mov    %edx,0x84(%esp)
 804acc7:	74 1b                	je     804ace4 
 804acc9:	81 fd 00 40 00 00    	cmp    $0x4000,%ebp
 804accf:	74 1d                	je     804acee 
 804acd1:	68 01 40 00 00       	push   $0x4001
 804acd6:	55                   	push   %ebp
 804acd7:	56                   	push   %esi
 804acd8:	ff 74 24 40          	pushl  0x40(%esp)
 804acdc:	e8 cf e4 ff ff       	call   80491b0 
 804ace1:	83 c4 10             	add    $0x10,%esp
 804ace4:	b9 01 00 00 00       	mov    $0x1,%ecx
 804ace9:	e9 d2 f7 ff ff       	jmp    804a4c0 
 804acee:	83 c6 01             	add    $0x1,%esi
 804acf1:	bd ff 3f 00 00       	mov    $0x3fff,%ebp
 804acf6:	eb d9                	jmp    804acd1 
 804acf8:	c6 44 24 34 01       	movb   $0x1,0x34(%esp)
 804acfd:	8b 44 24 60          	mov    0x60(%esp),%eax
 804ad01:	8b 7c 24 1c          	mov    0x1c(%esp),%edi
 804ad05:	8b 74 24 18          	mov    0x18(%esp),%esi
 804ad09:	89 44 24 10          	mov    %eax,0x10(%esp)
 804ad0d:	8b 44 24 58          	mov    0x58(%esp),%eax
 804ad11:	89 44 24 14          	mov    %eax,0x14(%esp)
 804ad15:	8b 54 24 14          	mov    0x14(%esp),%edx
 804ad19:	8b 44 24 10          	mov    0x10(%esp),%eax
 804ad1d:	39 fa                	cmp    %edi,%edx
 804ad1f:	77 06                	ja     804ad27 
 804ad21:	72 18                	jb     804ad3b 
 804ad23:	39 f0                	cmp    %esi,%eax
 804ad25:	72 14                	jb     804ad3b 
 804ad27:	0f b6 74 24 08       	movzbl 0x8(%esp),%esi
 804ad2c:	31 ff                	xor    %edi,%edi
 804ad2e:	03 74 24 38          	add    0x38(%esp),%esi
 804ad32:	13 7c 24 3c          	adc    0x3c(%esp),%edi
 804ad36:	e9 c9 f9 ff ff       	jmp    804a704 
 804ad3b:	8b 44 24 18          	mov    0x18(%esp),%eax
 804ad3f:	8b 54 24 1c          	mov    0x1c(%esp),%edx
 804ad43:	89 44 24 10          	mov    %eax,0x10(%esp)
 804ad47:	89 54 24 14          	mov    %edx,0x14(%esp)
 804ad4b:	eb da                	jmp    804ad27 
 804ad4d:	83 ec 04             	sub    $0x4,%esp
 804ad50:	ff 74 24 70          	pushl  0x70(%esp)
 804ad54:	6a 03                	push   $0x3
 804ad56:	6a 00                	push   $0x0
 804ad58:	e8 83 22 00 00       	call   804cfe0 
 804ad5d:	89 c6                	mov    %eax,%esi
 804ad5f:	e8 3c e5 ff ff       	call   80492a0 
 804ad64:	8d 93 81 b4 ff ff    	lea    -0x4b7f(%ebx),%edx
 804ad6a:	56                   	push   %esi
 804ad6b:	52                   	push   %edx
 804ad6c:	ff 30                	pushl  (%eax)
 804ad6e:	6a 00                	push   $0x0
 804ad70:	e8 db e3 ff ff       	call   8049150 
 804ad75:	83 c4 20             	add    $0x20,%esp
 804ad78:	c6 44 24 34 00       	movb   $0x0,0x34(%esp)
 804ad7d:	e9 7b ff ff ff       	jmp    804acfd 
 804ad82:	8d 83 68 ac ff ff    	lea    -0x5398(%ebx),%eax
 804ad88:	83 ec 04             	sub    $0x4,%esp
 804ad8b:	6a 05                	push   $0x5
 804ad8d:	50                   	push   %eax
 804ad8e:	6a 00                	push   $0x0
 804ad90:	e8 eb e2 ff ff       	call   8049080 
 804ad95:	89 44 24 7c          	mov    %eax,0x7c(%esp)
 804ad99:	83 c4 10             	add    $0x10,%esp
 804ad9c:	e9 10 f5 ff ff       	jmp    804a2b1 
 804ada1:	89 74 24 48          	mov    %esi,0x48(%esp)
 804ada5:	89 7c 24 4c          	mov    %edi,0x4c(%esp)
 804ada9:	83 ec 04             	sub    $0x4,%esp
 804adac:	ff 74 24 70          	pushl  0x70(%esp)
 804adb0:	6a 03                	push   $0x3
 804adb2:	31 ff                	xor    %edi,%edi
 804adb4:	6a 00                	push   $0x0
 804adb6:	e8 25 22 00 00       	call   804cfe0 
 804adbb:	89 c6                	mov    %eax,%esi
 804adbd:	e8 de e4 ff ff       	call   80492a0 
 804adc2:	8d 93 81 b4 ff ff    	lea    -0x4b7f(%ebx),%edx
 804adc8:	56                   	push   %esi
 804adc9:	31 f6                	xor    %esi,%esi
 804adcb:	52                   	push   %edx
 804adcc:	ff 30                	pushl  (%eax)
 804adce:	6a 00                	push   $0x0
 804add0:	e8 7b e3 ff ff       	call   8049150 
 804add5:	83 c4 20             	add    $0x20,%esp
 804add8:	c7 44 24 10 00 00 00 	movl   $0x0,0x10(%esp)
 804addf:	00 
 804ade0:	c7 44 24 14 00 00 00 	movl   $0x0,0x14(%esp)
 804ade7:	00 
 804ade8:	c7 44 24 28 00 00 00 	movl   $0x0,0x28(%esp)
 804adef:	00 
 804adf0:	c7 44 24 2c 00 00 00 	movl   $0x0,0x2c(%esp)
 804adf7:	00 
 804adf8:	c7 44 24 20 00 00 00 	movl   $0x0,0x20(%esp)
 804adff:	00 
 804ae00:	c7 44 24 24 00 00 00 	movl   $0x0,0x24(%esp)
 804ae07:	00 
 804ae08:	c6 44 24 34 00       	movb   $0x0,0x34(%esp)
 804ae0d:	e9 f2 f8 ff ff       	jmp    804a704 
 804ae12:	88 54 24 08          	mov    %dl,0x8(%esp)
 804ae16:	8b 7c 24 10          	mov    0x10(%esp),%edi
 804ae1a:	83 ec 04             	sub    $0x4,%esp
 804ae1d:	8b 6c 24 18          	mov    0x18(%esp),%ebp
 804ae21:	ff 74 24 70          	pushl  0x70(%esp)
 804ae25:	6a 03                	push   $0x3
 804ae27:	6a 00                	push   $0x0
 804ae29:	e8 b2 21 00 00       	call   804cfe0 
 804ae2e:	89 c6                	mov    %eax,%esi
 804ae30:	e8 6b e4 ff ff       	call   80492a0 
 804ae35:	89 c2                	mov    %eax,%edx
 804ae37:	8d 83 81 b4 ff ff    	lea    -0x4b7f(%ebx),%eax
 804ae3d:	56                   	push   %esi
 804ae3e:	50                   	push   %eax
 804ae3f:	ff 32                	pushl  (%edx)
 804ae41:	6a 00                	push   $0x0
 804ae43:	e8 08 e3 ff ff       	call   8049150 
 804ae48:	83 c4 20             	add    $0x20,%esp
 804ae4b:	0f b6 4c 24 08       	movzbl 0x8(%esp),%ecx
 804ae50:	c6 44 24 34 00       	movb   $0x0,0x34(%esp)
 804ae55:	8b 44 24 50          	mov    0x50(%esp),%eax
 804ae59:	8b 74 24 04          	mov    0x4(%esp),%esi
 804ae5d:	89 44 24 10          	mov    %eax,0x10(%esp)
 804ae61:	8b 44 24 28          	mov    0x28(%esp),%eax
 804ae65:	89 44 24 14          	mov    %eax,0x14(%esp)
 804ae69:	8b 54 24 14          	mov    0x14(%esp),%edx
 804ae6d:	8b 44 24 10          	mov    0x10(%esp),%eax
 804ae71:	39 f2                	cmp    %esi,%edx
 804ae73:	77 18                	ja     804ae8d 
 804ae75:	72 07                	jb     804ae7e 
 804ae77:	8b 34 24             	mov    (%esp),%esi
 804ae7a:	39 f0                	cmp    %esi,%eax
 804ae7c:	73 0f                	jae    804ae8d 
 804ae7e:	8b 04 24             	mov    (%esp),%eax
 804ae81:	8b 54 24 04          	mov    0x4(%esp),%edx
 804ae85:	89 44 24 10          	mov    %eax,0x10(%esp)
 804ae89:	89 54 24 14          	mov    %edx,0x14(%esp)
 804ae8d:	0f b6 f1             	movzbl %cl,%esi
 804ae90:	31 d2                	xor    %edx,%edx
 804ae92:	c7 44 24 28 00 00 00 	movl   $0x0,0x28(%esp)
 804ae99:	00 
 804ae9a:	89 f0                	mov    %esi,%eax
 804ae9c:	c7 44 24 2c 00 00 00 	movl   $0x0,0x2c(%esp)
 804aea3:	00 
 804aea4:	01 f8                	add    %edi,%eax
 804aea6:	11 ea                	adc    %ebp,%edx
 804aea8:	89 c6                	mov    %eax,%esi
 804aeaa:	89 d7                	mov    %edx,%edi
 804aeac:	e9 53 f8 ff ff       	jmp    804a704 
 804aeb1:	8b 7c 24 10          	mov    0x10(%esp),%edi
 804aeb5:	8b 6c 24 14          	mov    0x14(%esp),%ebp
 804aeb9:	89 d1                	mov    %edx,%ecx
 804aebb:	c6 44 24 34 01       	movb   $0x1,0x34(%esp)
 804aec0:	eb 93                	jmp    804ae55 
 804aec2:	6a 01                	push   $0x1
 804aec4:	6a 00                	push   $0x0
 804aec6:	6a 00                	push   $0x0
 804aec8:	ff 74 24 50          	pushl  0x50(%esp)
 804aecc:	e8 7f e4 ff ff       	call   8049350 
 804aed1:	89 44 24 10          	mov    %eax,0x10(%esp)
 804aed5:	89 54 24 14          	mov    %edx,0x14(%esp)
 804aed9:	83 c4 10             	add    $0x10,%esp
 804aedc:	e9 ab f4 ff ff       	jmp    804a38c 
 804aee1:	89 d0                	mov    %edx,%eax
 804aee3:	e9 4c fd ff ff       	jmp    804ac34 
 804aee8:	e8 33 3d 00 00       	call   804ec20 
 804aeed:	88 54 24 10          	mov    %dl,0x10(%esp)
 804aef1:	88 44 24 08          	mov    %al,0x8(%esp)
 804aef5:	83 ec 08             	sub    $0x8,%esp
 804aef8:	6a 02                	push   $0x2
 804aefa:	6a 00                	push   $0x0
 804aefc:	6a 00                	push   $0x0
 804aefe:	6a 00                	push   $0x0
 804af00:	6a 00                	push   $0x0
 804af02:	ff 74 24 60          	pushl  0x60(%esp)
 804af06:	e8 f5 05 00 00       	call   804b500 
 804af0b:	83 c4 20             	add    $0x20,%esp
 804af0e:	0f b6 44 24 08       	movzbl 0x8(%esp),%eax
 804af13:	0f b6 54 24 10       	movzbl 0x10(%esp),%edx
 804af18:	e9 50 f6 ff ff       	jmp    804a56d 
 804af1d:	8d 76 00             	lea    0x0(%esi),%esi
 804af20:	55                   	push   %ebp
 804af21:	57                   	push   %edi
 804af22:	56                   	push   %esi
 804af23:	53                   	push   %ebx
 804af24:	e8 17 f0 ff ff       	call   8049f40 
 804af29:	81 c3 d7 90 00 00    	add    $0x90d7,%ebx
 804af2f:	83 ec 4c             	sub    $0x4c,%esp
 804af32:	8b 6c 24 60          	mov    0x60(%esp),%ebp
 804af36:	85 ed                	test   %ebp,%ebp
 804af38:	74 39                	je     804af73 
 804af3a:	8d 83 f0 01 00 00    	lea    0x1f0(%ebx),%eax
 804af40:	8b 30                	mov    (%eax),%esi
 804af42:	8d 83 bc ae ff ff    	lea    -0x5144(%ebx),%eax
 804af48:	57                   	push   %edi
 804af49:	6a 05                	push   $0x5
 804af4b:	50                   	push   %eax
 804af4c:	6a 00                	push   $0x0
 804af4e:	e8 2d e1 ff ff       	call   8049080 
 804af53:	56                   	push   %esi
 804af54:	50                   	push   %eax
 804af55:	8b 83 b4 ff ff ff    	mov    -0x4c(%ebx),%eax
 804af5b:	6a 01                	push   $0x1
 804af5d:	ff 30                	pushl  (%eax)
 804af5f:	e8 fc e3 ff ff       	call   8049360 
 804af64:	83 c4 20             	add    $0x20,%esp
 804af67:	83 ec 0c             	sub    $0xc,%esp
 804af6a:	ff 74 24 6c          	pushl  0x6c(%esp)
 804af6e:	e8 6d e2 ff ff       	call   80491e0 
 804af73:	8d 83 f0 01 00 00    	lea    0x1f0(%ebx),%eax
 804af79:	8b 30                	mov    (%eax),%esi
 804af7b:	8d 83 e4 ae ff ff    	lea    -0x511c(%ebx),%eax
 804af81:	57                   	push   %edi
 804af82:	6a 05                	push   $0x5
 804af84:	50                   	push   %eax
 804af85:	6a 00                	push   $0x0
 804af87:	e8 f4 e0 ff ff       	call   8049080 
 804af8c:	56                   	push   %esi
 804af8d:	56                   	push   %esi
 804af8e:	50                   	push   %eax
 804af8f:	6a 01                	push   $0x1
 804af91:	e8 4a e3 ff ff       	call   80492e0 
 804af96:	8b b3 d0 ff ff ff    	mov    -0x30(%ebx),%esi
 804af9c:	8d 83 2c af ff ff    	lea    -0x50d4(%ebx),%eax
 804afa2:	83 c4 1c             	add    $0x1c,%esp
 804afa5:	8b 3e                	mov    (%esi),%edi
 804afa7:	6a 05                	push   $0x5
 804afa9:	50                   	push   %eax
 804afaa:	6a 00                	push   $0x0
 804afac:	e8 cf e0 ff ff       	call   8049080 
 804afb1:	5d                   	pop    %ebp
 804afb2:	5a                   	pop    %edx
 804afb3:	57                   	push   %edi
 804afb4:	50                   	push   %eax
 804afb5:	e8 56 e2 ff ff       	call   8049210 
 804afba:	8d 83 e4 af ff ff    	lea    -0x501c(%ebx),%eax
 804afc0:	83 c4 0c             	add    $0xc,%esp
 804afc3:	8b 3e                	mov    (%esi),%edi
 804afc5:	6a 05                	push   $0x5
 804afc7:	50                   	push   %eax
 804afc8:	6a 00                	push   $0x0
 804afca:	e8 b1 e0 ff ff       	call   8049080 
 804afcf:	59                   	pop    %ecx
 804afd0:	5d                   	pop    %ebp
 804afd1:	57                   	push   %edi
 804afd2:	50                   	push   %eax
 804afd3:	e8 38 e2 ff ff       	call   8049210 
 804afd8:	8d 83 1c b0 ff ff    	lea    -0x4fe4(%ebx),%eax
 804afde:	83 c4 0c             	add    $0xc,%esp
 804afe1:	8b 3e                	mov    (%esi),%edi
 804afe3:	6a 05                	push   $0x5
 804afe5:	50                   	push   %eax
 804afe6:	6a 00                	push   $0x0
 804afe8:	e8 93 e0 ff ff       	call   8049080 
 804afed:	5a                   	pop    %edx
 804afee:	59                   	pop    %ecx
 804afef:	57                   	push   %edi
 804aff0:	50                   	push   %eax
 804aff1:	e8 1a e2 ff ff       	call   8049210 
 804aff6:	8d 83 4c b1 ff ff    	lea    -0x4eb4(%ebx),%eax
 804affc:	83 c4 0c             	add    $0xc,%esp
 804afff:	8b 3e                	mov    (%esi),%edi
 804b001:	6a 05                	push   $0x5
 804b003:	50                   	push   %eax
 804b004:	6a 00                	push   $0x0
 804b006:	e8 75 e0 ff ff       	call   8049080 
 804b00b:	5d                   	pop    %ebp
 804b00c:	5a                   	pop    %edx
 804b00d:	57                   	push   %edi
 804b00e:	50                   	push   %eax
 804b00f:	e8 fc e1 ff ff       	call   8049210 
 804b014:	8d 83 7c b2 ff ff    	lea    -0x4d84(%ebx),%eax
 804b01a:	83 c4 0c             	add    $0xc,%esp
 804b01d:	8b 3e                	mov    (%esi),%edi
 804b01f:	6a 05                	push   $0x5
 804b021:	50                   	push   %eax
 804b022:	6a 00                	push   $0x0
 804b024:	e8 57 e0 ff ff       	call   8049080 
 804b029:	59                   	pop    %ecx
 804b02a:	5d                   	pop    %ebp
 804b02b:	57                   	push   %edi
 804b02c:	50                   	push   %eax
 804b02d:	8d bb 77 ac ff ff    	lea    -0x5389(%ebx),%edi
 804b033:	8d ab 79 ac ff ff    	lea    -0x5387(%ebx),%ebp
 804b039:	e8 d2 e1 ff ff       	call   8049210 
 804b03e:	8d 83 ac b2 ff ff    	lea    -0x4d54(%ebx),%eax
 804b044:	83 c4 0c             	add    $0xc,%esp
 804b047:	8b 36                	mov    (%esi),%esi
 804b049:	6a 05                	push   $0x5
 804b04b:	50                   	push   %eax
 804b04c:	6a 00                	push   $0x0
 804b04e:	e8 2d e0 ff ff       	call   8049080 
 804b053:	5a                   	pop    %edx
 804b054:	59                   	pop    %ecx
 804b055:	56                   	push   %esi
 804b056:	50                   	push   %eax
 804b057:	e8 b4 e1 ff ff       	call   8049210 
 804b05c:	8d 83 7c ac ff ff    	lea    -0x5384(%ebx),%eax
 804b062:	8d 93 bb ac ff ff    	lea    -0x5345(%ebx),%edx
 804b068:	89 7c 24 18          	mov    %edi,0x18(%esp)
 804b06c:	c7 44 24 48 00 00 00 	movl   $0x0,0x48(%esp)
 804b073:	00 
 804b074:	c7 44 24 4c 00 00 00 	movl   $0x0,0x4c(%esp)
 804b07b:	00 
 804b07c:	89 44 24 1c          	mov    %eax,0x1c(%esp)
 804b080:	8d 83 f4 ac ff ff    	lea    -0x530c(%ebx),%eax
 804b086:	89 54 24 30          	mov    %edx,0x30(%esp)
 804b08a:	8d 93 c5 ac ff ff    	lea    -0x533b(%ebx),%edx
 804b090:	89 44 24 20          	mov    %eax,0x20(%esp)
 804b094:	8d 83 8c ac ff ff    	lea    -0x5374(%ebx),%eax
 804b09a:	89 54 24 38          	mov    %edx,0x38(%esp)
 804b09e:	8d 93 cf ac ff ff    	lea    -0x5331(%ebx),%edx
 804b0a4:	89 44 24 24          	mov    %eax,0x24(%esp)
 804b0a8:	8d 83 a2 ac ff ff    	lea    -0x535e(%ebx),%eax
 804b0ae:	89 54 24 40          	mov    %edx,0x40(%esp)
 804b0b2:	89 44 24 28          	mov    %eax,0x28(%esp)
 804b0b6:	8d 83 ac ac ff ff    	lea    -0x5354(%ebx),%eax
 804b0bc:	89 44 24 2c          	mov    %eax,0x2c(%esp)
 804b0c0:	89 44 24 34          	mov    %eax,0x34(%esp)
 804b0c4:	89 44 24 3c          	mov    %eax,0x3c(%esp)
 804b0c8:	89 44 24 44          	mov    %eax,0x44(%esp)
 804b0cc:	83 c4 10             	add    $0x10,%esp
 804b0cf:	8d 44 24 08          	lea    0x8(%esp),%eax
 804b0d3:	e9 11 00 00 00       	jmp    804b0e9 
 804b0d8:	90                   	nop
 804b0d9:	8d b4 26 00 00 00 00 	lea    0x0(%esi,%eiz,1),%esi
 804b0e0:	83 c0 08             	add    $0x8,%eax
 804b0e3:	8b 38                	mov    (%eax),%edi
 804b0e5:	85 ff                	test   %edi,%edi
 804b0e7:	74 0b                	je     804b0f4 
 804b0e9:	b9 03 00 00 00       	mov    $0x3,%ecx
 804b0ee:	89 ee                	mov    %ebp,%esi
 804b0f0:	f3 a6                	repz cmpsb %es:(%edi),%ds:(%esi)
 804b0f2:	75 ec                	jne    804b0e0 
 804b0f4:	8b 70 04             	mov    0x4(%eax),%esi
 804b0f7:	85 f6                	test   %esi,%esi
 804b0f9:	0f 84 a4 00 00 00    	je     804b1a3 
 804b0ff:	8d 83 d9 ac ff ff    	lea    -0x5327(%ebx),%eax
 804b105:	51                   	push   %ecx
 804b106:	6a 05                	push   $0x5
 804b108:	8d bb e4 b2 ff ff    	lea    -0x4d1c(%ebx),%edi
 804b10e:	50                   	push   %eax
 804b10f:	6a 00                	push   $0x0
 804b111:	e8 6a df ff ff       	call   8049080 
 804b116:	8d 93 f0 ac ff ff    	lea    -0x5310(%ebx),%edx
 804b11c:	57                   	push   %edi
 804b11d:	52                   	push   %edx
 804b11e:	50                   	push   %eax
 804b11f:	6a 01                	push   $0x1
 804b121:	e8 ba e1 ff ff       	call   80492e0 
 804b126:	83 c4 18             	add    $0x18,%esp
 804b129:	6a 00                	push   $0x0
 804b12b:	6a 05                	push   $0x5
 804b12d:	e8 de e1 ff ff       	call   8049310 
 804b132:	83 c4 10             	add    $0x10,%esp
 804b135:	85 c0                	test   %eax,%eax
 804b137:	74 1b                	je     804b154 
 804b139:	52                   	push   %edx
 804b13a:	8d 93 fe ac ff ff    	lea    -0x5302(%ebx),%edx
 804b140:	6a 03                	push   $0x3
 804b142:	52                   	push   %edx
 804b143:	50                   	push   %eax
 804b144:	e8 47 e2 ff ff       	call   8049390 
 804b149:	83 c4 10             	add    $0x10,%esp
 804b14c:	85 c0                	test   %eax,%eax
 804b14e:	0f 85 cd 00 00 00    	jne    804b221 
 804b154:	50                   	push   %eax
 804b155:	8d 83 54 b3 ff ff    	lea    -0x4cac(%ebx),%eax
 804b15b:	6a 05                	push   $0x5
 804b15d:	50                   	push   %eax
 804b15e:	6a 00                	push   $0x0
 804b160:	e8 1b df ff ff       	call   8049080 
 804b165:	55                   	push   %ebp
 804b166:	57                   	push   %edi
 804b167:	8d bb c1 b8 ff ff    	lea    -0x473f(%ebx),%edi
 804b16d:	50                   	push   %eax
 804b16e:	6a 01                	push   $0x1
 804b170:	e8 6b e1 ff ff       	call   80492e0 
 804b175:	83 c4 20             	add    $0x20,%esp
 804b178:	39 ee                	cmp    %ebp,%esi
 804b17a:	0f 84 92 00 00 00    	je     804b212 
 804b180:	8d 83 74 b3 ff ff    	lea    -0x4c8c(%ebx),%eax
 804b186:	55                   	push   %ebp
 804b187:	6a 05                	push   $0x5
 804b189:	50                   	push   %eax
 804b18a:	6a 00                	push   $0x0
 804b18c:	e8 ef de ff ff       	call   8049080 
 804b191:	57                   	push   %edi
 804b192:	56                   	push   %esi
 804b193:	50                   	push   %eax
 804b194:	6a 01                	push   $0x1
 804b196:	e8 45 e1 ff ff       	call   80492e0 
 804b19b:	83 c4 20             	add    $0x20,%esp
 804b19e:	e9 c4 fd ff ff       	jmp    804af67 
 804b1a3:	8d 83 d9 ac ff ff    	lea    -0x5327(%ebx),%eax
 804b1a9:	51                   	push   %ecx
 804b1aa:	6a 05                	push   $0x5
 804b1ac:	8d bb e4 b2 ff ff    	lea    -0x4d1c(%ebx),%edi
 804b1b2:	50                   	push   %eax
 804b1b3:	6a 00                	push   $0x0
 804b1b5:	e8 c6 de ff ff       	call   8049080 
 804b1ba:	8d 93 f0 ac ff ff    	lea    -0x5310(%ebx),%edx
 804b1c0:	57                   	push   %edi
 804b1c1:	52                   	push   %edx
 804b1c2:	50                   	push   %eax
 804b1c3:	6a 01                	push   $0x1
 804b1c5:	e8 16 e1 ff ff       	call   80492e0 
 804b1ca:	83 c4 18             	add    $0x18,%esp
 804b1cd:	6a 00                	push   $0x0
 804b1cf:	6a 05                	push   $0x5
 804b1d1:	e8 3a e1 ff ff       	call   8049310 
 804b1d6:	83 c4 10             	add    $0x10,%esp
 804b1d9:	85 c0                	test   %eax,%eax
 804b1db:	74 17                	je     804b1f4 
 804b1dd:	52                   	push   %edx
 804b1de:	8d 93 fe ac ff ff    	lea    -0x5302(%ebx),%edx
 804b1e4:	6a 03                	push   $0x3
 804b1e6:	52                   	push   %edx
 804b1e7:	50                   	push   %eax
 804b1e8:	e8 a3 e1 ff ff       	call   8049390 
 804b1ed:	83 c4 10             	add    $0x10,%esp
 804b1f0:	85 c0                	test   %eax,%eax
 804b1f2:	75 2b                	jne    804b21f 
 804b1f4:	8d 83 54 b3 ff ff    	lea    -0x4cac(%ebx),%eax
 804b1fa:	56                   	push   %esi
 804b1fb:	6a 05                	push   $0x5
 804b1fd:	50                   	push   %eax
 804b1fe:	6a 00                	push   $0x0
 804b200:	e8 7b de ff ff       	call   8049080 
 804b205:	55                   	push   %ebp
 804b206:	57                   	push   %edi
 804b207:	50                   	push   %eax
 804b208:	6a 01                	push   $0x1
 804b20a:	e8 d1 e0 ff ff       	call   80492e0 
 804b20f:	83 c4 20             	add    $0x20,%esp
 804b212:	89 ee                	mov    %ebp,%esi
 804b214:	8d bb 96 ac ff ff    	lea    -0x536a(%ebx),%edi
 804b21a:	e9 61 ff ff ff       	jmp    804b180 
 804b21f:	89 ee                	mov    %ebp,%esi
 804b221:	50                   	push   %eax
 804b222:	8d 83 0c b3 ff ff    	lea    -0x4cf4(%ebx),%eax
 804b228:	6a 05                	push   $0x5
 804b22a:	50                   	push   %eax
 804b22b:	6a 00                	push   $0x0
 804b22d:	e8 4e de ff ff       	call   8049080 
 804b232:	83 c4 0c             	add    $0xc,%esp
 804b235:	55                   	push   %ebp
 804b236:	50                   	push   %eax
 804b237:	6a 01                	push   $0x1
 804b239:	e8 a2 e0 ff ff       	call   80492e0 
 804b23e:	83 c4 10             	add    $0x10,%esp
 804b241:	e9 0e ff ff ff       	jmp    804b154 
 804b246:	66 90                	xchg   %ax,%ax
 804b248:	66 90                	xchg   %ax,%ax
 804b24a:	66 90                	xchg   %ax,%ax
 804b24c:	66 90                	xchg   %ax,%ax
 804b24e:	66 90                	xchg   %ax,%ax
 804b250:	56                   	push   %esi
 804b251:	53                   	push   %ebx
 804b252:	e8 e9 ec ff ff       	call   8049f40 
 804b257:	81 c3 a9 8d 00 00    	add    $0x8da9,%ebx
 804b25d:	83 ec 10             	sub    $0x10,%esp
 804b260:	8b 74 24 1c          	mov    0x1c(%esp),%esi
 804b264:	6a 18                	push   $0x18
 804b266:	e8 15 df ff ff       	call   8049180 
 804b26b:	83 c4 10             	add    $0x10,%esp
 804b26e:	85 c0                	test   %eax,%eax
 804b270:	74 0c                	je     804b27e 
 804b272:	c7 00 00 00 00 00    	movl   $0x0,(%eax)
 804b278:	89 70 10             	mov    %esi,0x10(%eax)
 804b27b:	89 70 14             	mov    %esi,0x14(%eax)
 804b27e:	83 c4 04             	add    $0x4,%esp
 804b281:	5b                   	pop    %ebx
 804b282:	5e                   	pop    %esi
 804b283:	c3                   	ret    
 804b284:	8d b6 00 00 00 00    	lea    0x0(%esi),%esi
 804b28a:	8d bf 00 00 00 00    	lea    0x0(%edi),%edi
 804b290:	53                   	push   %ebx
 804b291:	e8 aa ec ff ff       	call   8049f40 
 804b296:	81 c3 6a 8d 00 00    	add    $0x8d6a,%ebx
 804b29c:	83 ec 14             	sub    $0x14,%esp
 804b29f:	6a 18                	push   $0x18
 804b2a1:	e8 da de ff ff       	call   8049180 
 804b2a6:	83 c4 10             	add    $0x10,%esp
 804b2a9:	85 c0                	test   %eax,%eax
 804b2ab:	74 22                	je     804b2cf 
 804b2ad:	8b 54 24 10          	mov    0x10(%esp),%edx
 804b2b1:	c7 40 08 00 00 00 00 	movl   $0x0,0x8(%eax)
 804b2b8:	c7 40 0c 00 00 00 00 	movl   $0x0,0xc(%eax)
 804b2bf:	c7 40 04 00 00 00 00 	movl   $0x0,0x4(%eax)
 804b2c6:	c7 40 10 00 00 00 00 	movl   $0x0,0x10(%eax)
 804b2cd:	89 10                	mov    %edx,(%eax)
 804b2cf:	83 c4 08             	add    $0x8,%esp
 804b2d2:	5b                   	pop    %ebx
 804b2d3:	c3                   	ret    
 804b2d4:	8d b6 00 00 00 00    	lea    0x0(%esi),%esi
 804b2da:	8d bf 00 00 00 00    	lea    0x0(%edi),%edi
 804b2e0:	56                   	push   %esi
 804b2e1:	53                   	push   %ebx
 804b2e2:	e8 59 ec ff ff       	call   8049f40 
 804b2e7:	81 c3 19 8d 00 00    	add    $0x8d19,%ebx
 804b2ed:	83 ec 04             	sub    $0x4,%esp
 804b2f0:	8b 74 24 10          	mov    0x10(%esp),%esi
 804b2f4:	8b 06                	mov    (%esi),%eax
 804b2f6:	85 c0                	test   %eax,%eax
 804b2f8:	74 36                	je     804b330 
 804b2fa:	50                   	push   %eax
 804b2fb:	8d 46 0c             	lea    0xc(%esi),%eax
 804b2fe:	6a 00                	push   $0x0
 804b300:	50                   	push   %eax
 804b301:	8d 46 08             	lea    0x8(%esi),%eax
 804b304:	50                   	push   %eax
 804b305:	e8 36 e0 ff ff       	call   8049340 
 804b30a:	83 c4 10             	add    $0x10,%esp
 804b30d:	85 c0                	test   %eax,%eax
 804b30f:	78 47                	js     804b358 
 804b311:	8b 44 24 14          	mov    0x14(%esp),%eax
 804b315:	c7 00 01 00 00 00    	movl   $0x1,(%eax)
 804b31b:	83 46 04 01          	addl   $0x1,0x4(%esi)
 804b31f:	8b 46 08             	mov    0x8(%esi),%eax
 804b322:	83 c4 04             	add    $0x4,%esp
 804b325:	5b                   	pop    %ebx
 804b326:	5e                   	pop    %esi
 804b327:	c3                   	ret    
 804b328:	90                   	nop
 804b329:	8d b4 26 00 00 00 00 	lea    0x0(%esi,%eiz,1),%esi
 804b330:	8b 56 14             	mov    0x14(%esi),%edx
 804b333:	8b 02                	mov    (%edx),%eax
 804b335:	85 c0                	test   %eax,%eax
 804b337:	74 41                	je     804b37a 
 804b339:	8b 44 24 14          	mov    0x14(%esp),%eax
 804b33d:	c7 00 01 00 00 00    	movl   $0x1,(%eax)
 804b343:	8d 42 04             	lea    0x4(%edx),%eax
 804b346:	89 46 14             	mov    %eax,0x14(%esi)
 804b349:	8b 02                	mov    (%edx),%eax
 804b34b:	83 c4 04             	add    $0x4,%esp
 804b34e:	5b                   	pop    %ebx
 804b34f:	5e                   	pop    %esi
 804b350:	c3                   	ret    
 804b351:	8d b4 26 00 00 00 00 	lea    0x0(%esi,%eiz,1),%esi
 804b358:	83 ec 0c             	sub    $0xc,%esp
 804b35b:	ff 36                	pushl  (%esi)
 804b35d:	e8 9e de ff ff       	call   8049200 
 804b362:	83 c4 10             	add    $0x10,%esp
 804b365:	83 f8 01             	cmp    $0x1,%eax
 804b368:	8b 4c 24 14          	mov    0x14(%esp),%ecx
 804b36c:	19 c0                	sbb    %eax,%eax
 804b36e:	83 e0 02             	and    $0x2,%eax
 804b371:	83 c0 02             	add    $0x2,%eax
 804b374:	89 01                	mov    %eax,(%ecx)
 804b376:	31 c0                	xor    %eax,%eax
 804b378:	eb a8                	jmp    804b322 
 804b37a:	8b 4c 24 14          	mov    0x14(%esp),%ecx
 804b37e:	c7 01 02 00 00 00    	movl   $0x2,(%ecx)
 804b384:	eb 9c                	jmp    804b322 
 804b386:	8d 76 00             	lea    0x0(%esi),%esi
 804b389:	8d bc 27 00 00 00 00 	lea    0x0(%edi,%eiz,1),%edi
 804b390:	8b 54 24 04          	mov    0x4(%esp),%edx
 804b394:	8b 02                	mov    (%edx),%eax
 804b396:	85 c0                	test   %eax,%eax
 804b398:	74 06                	je     804b3a0 
 804b39a:	8b 42 04             	mov    0x4(%edx),%eax
 804b39d:	c3                   	ret    
 804b39e:	66 90                	xchg   %ax,%ax
 804b3a0:	8b 42 14             	mov    0x14(%edx),%eax
 804b3a3:	2b 42 10             	sub    0x10(%edx),%eax
 804b3a6:	c1 f8 02             	sar    $0x2,%eax
 804b3a9:	c3                   	ret    
 804b3aa:	8d b6 00 00 00 00    	lea    0x0(%esi),%esi
 804b3b0:	56                   	push   %esi
 804b3b1:	53                   	push   %ebx
 804b3b2:	e8 89 eb ff ff       	call   8049f40 
 804b3b7:	81 c3 49 8c 00 00    	add    $0x8c49,%ebx
 804b3bd:	83 ec 04             	sub    $0x4,%esp
 804b3c0:	8b 74 24 10          	mov    0x10(%esp),%esi
 804b3c4:	8b 06                	mov    (%esi),%eax
 804b3c6:	85 c0                	test   %eax,%eax
 804b3c8:	74 0e                	je     804b3d8 
 804b3ca:	83 ec 0c             	sub    $0xc,%esp
 804b3cd:	ff 76 08             	pushl  0x8(%esi)
 804b3d0:	e8 3b dc ff ff       	call   8049010 
 804b3d5:	83 c4 10             	add    $0x10,%esp
 804b3d8:	83 ec 0c             	sub    $0xc,%esp
 804b3db:	56                   	push   %esi
 804b3dc:	e8 2f dc ff ff       	call   8049010 
 804b3e1:	83 c4 14             	add    $0x14,%esp
 804b3e4:	5b                   	pop    %ebx
 804b3e5:	5e                   	pop    %esi
 804b3e6:	c3                   	ret    
 804b3e7:	66 90                	xchg   %ax,%ax
 804b3e9:	66 90                	xchg   %ax,%ax
 804b3eb:	66 90                	xchg   %ax,%ax
 804b3ed:	66 90                	xchg   %ax,%ax
 804b3ef:	90                   	nop
 804b3f0:	8b 54 24 04          	mov    0x4(%esp),%edx
 804b3f4:	e8 fd 00 00 00       	call   804b4f6 
 804b3f9:	05 07 8c 00 00       	add    $0x8c07,%eax
 804b3fe:	89 90 ec 01 00 00    	mov    %edx,0x1ec(%eax)
 804b404:	c3                   	ret    
 804b405:	8d 74 26 00          	lea    0x0(%esi,%eiz,1),%esi
 804b409:	8d bc 27 00 00 00 00 	lea    0x0(%edi,%eiz,1),%edi
 804b410:	8b 54 24 04          	mov    0x4(%esp),%edx
 804b414:	e8 dd 00 00 00       	call   804b4f6 
 804b419:	05 e7 8b 00 00       	add    $0x8be7,%eax
 804b41e:	88 90 e8 01 00 00    	mov    %dl,0x1e8(%eax)
 804b424:	c3                   	ret    
 804b425:	8d 74 26 00          	lea    0x0(%esi,%eiz,1),%esi
 804b429:	8d bc 27 00 00 00 00 	lea    0x0(%edi,%eiz,1),%edi
 804b430:	57                   	push   %edi
 804b431:	56                   	push   %esi
 804b432:	53                   	push   %ebx
 804b433:	e8 08 eb ff ff       	call   8049f40 
 804b438:	81 c3 c8 8b 00 00    	add    $0x8bc8,%ebx
 804b43e:	83 ec 0c             	sub    $0xc,%esp
 804b441:	8b 83 d0 ff ff ff    	mov    -0x30(%ebx),%eax
 804b447:	ff 30                	pushl  (%eax)
 804b449:	e8 b2 2f 00 00       	call   804e400 
 804b44e:	83 c4 10             	add    $0x10,%esp
 804b451:	85 c0                	test   %eax,%eax
 804b453:	74 13                	je     804b468 
 804b455:	80 bb e8 01 00 00 00 	cmpb   $0x0,0x1e8(%ebx)
 804b45c:	74 25                	je     804b483 
 804b45e:	e8 3d de ff ff       	call   80492a0 
 804b463:	83 38 20             	cmpl   $0x20,(%eax)
 804b466:	75 1b                	jne    804b483 
 804b468:	8b 83 b4 ff ff ff    	mov    -0x4c(%ebx),%eax
 804b46e:	83 ec 0c             	sub    $0xc,%esp
 804b471:	ff 30                	pushl  (%eax)
 804b473:	e8 88 2f 00 00       	call   804e400 
 804b478:	83 c4 10             	add    $0x10,%esp
 804b47b:	85 c0                	test   %eax,%eax
 804b47d:	75 4b                	jne    804b4ca 
 804b47f:	5b                   	pop    %ebx
 804b480:	5e                   	pop    %esi
 804b481:	5f                   	pop    %edi
 804b482:	c3                   	ret    
 804b483:	50                   	push   %eax
 804b484:	8d 83 71 b4 ff ff    	lea    -0x4b8f(%ebx),%eax
 804b48a:	6a 05                	push   $0x5
 804b48c:	50                   	push   %eax
 804b48d:	6a 00                	push   $0x0
 804b48f:	e8 ec db ff ff       	call   8049080 
 804b494:	89 c6                	mov    %eax,%esi
 804b496:	8b 83 ec 01 00 00    	mov    0x1ec(%ebx),%eax
 804b49c:	83 c4 10             	add    $0x10,%esp
 804b49f:	85 c0                	test   %eax,%eax
 804b4a1:	74 38                	je     804b4db 
 804b4a3:	83 ec 0c             	sub    $0xc,%esp
 804b4a6:	50                   	push   %eax
 804b4a7:	e8 e4 1a 00 00       	call   804cf90 
 804b4ac:	89 c7                	mov    %eax,%edi
 804b4ae:	e8 ed dd ff ff       	call   80492a0 
 804b4b3:	8d 93 7d b4 ff ff    	lea    -0x4b83(%ebx),%edx
 804b4b9:	89 34 24             	mov    %esi,(%esp)
 804b4bc:	57                   	push   %edi
 804b4bd:	52                   	push   %edx
 804b4be:	ff 30                	pushl  (%eax)
 804b4c0:	6a 00                	push   $0x0
 804b4c2:	e8 89 dc ff ff       	call   8049150 
 804b4c7:	83 c4 20             	add    $0x20,%esp
 804b4ca:	8d 83 2c 01 00 00    	lea    0x12c(%ebx),%eax
 804b4d0:	83 ec 0c             	sub    $0xc,%esp
 804b4d3:	8b 00                	mov    (%eax),%eax
 804b4d5:	50                   	push   %eax
 804b4d6:	e8 15 db ff ff       	call   8048ff0 
 804b4db:	e8 c0 dd ff ff       	call   80492a0 
 804b4e0:	8d 93 81 b4 ff ff    	lea    -0x4b7f(%ebx),%edx
 804b4e6:	56                   	push   %esi
 804b4e7:	52                   	push   %edx
 804b4e8:	ff 30                	pushl  (%eax)
 804b4ea:	6a 00                	push   $0x0
 804b4ec:	e8 5f dc ff ff       	call   8049150 
 804b4f1:	83 c4 10             	add    $0x10,%esp
 804b4f4:	eb d4                	jmp    804b4ca 
 804b4f6:	8b 04 24             	mov    (%esp),%eax
 804b4f9:	c3                   	ret    
 804b4fa:	66 90                	xchg   %ax,%ax
 804b4fc:	66 90                	xchg   %ax,%ax
 804b4fe:	66 90                	xchg   %ax,%ax
 804b500:	53                   	push   %ebx
 804b501:	e8 3a ea ff ff       	call   8049f40 
 804b506:	81 c3 fa 8a 00 00    	add    $0x8afa,%ebx
 804b50c:	83 ec 10             	sub    $0x10,%esp
 804b50f:	ff 74 24 2c          	pushl  0x2c(%esp)
 804b513:	ff 74 24 2c          	pushl  0x2c(%esp)
 804b517:	ff 74 24 2c          	pushl  0x2c(%esp)
 804b51b:	ff 74 24 2c          	pushl  0x2c(%esp)
 804b51f:	ff 74 24 2c          	pushl  0x2c(%esp)
 804b523:	ff 74 24 2c          	pushl  0x2c(%esp)
 804b527:	e8 54 de ff ff       	call   8049380 
 804b52c:	83 c4 28             	add    $0x28,%esp
 804b52f:	5b                   	pop    %ebx
 804b530:	c3                   	ret    
 804b531:	eb 0d                	jmp    804b540 
 804b533:	90                   	nop
 804b534:	90                   	nop
 804b535:	90                   	nop
 804b536:	90                   	nop
 804b537:	90                   	nop
 804b538:	90                   	nop
 804b539:	90                   	nop
 804b53a:	90                   	nop
 804b53b:	90                   	nop
 804b53c:	90                   	nop
 804b53d:	90                   	nop
 804b53e:	90                   	nop
 804b53f:	90                   	nop
 804b540:	53                   	push   %ebx
 804b541:	e8 fa e9 ff ff       	call   8049f40 
 804b546:	81 c3 ba 8a 00 00    	add    $0x8aba,%ebx
 804b54c:	83 ec 08             	sub    $0x8,%esp
 804b54f:	8b 44 24 10          	mov    0x10(%esp),%eax
 804b553:	85 c0                	test   %eax,%eax
 804b555:	74 20                	je     804b577 
 804b557:	83 ec 0c             	sub    $0xc,%esp
 804b55a:	50                   	push   %eax
 804b55b:	e8 60 dd ff ff       	call   80492c0 
 804b560:	5a                   	pop    %edx
 804b561:	59                   	pop    %ecx
 804b562:	ff 74 24 1c          	pushl  0x1c(%esp)
 804b566:	6a 00                	push   $0x0
 804b568:	6a 00                	push   $0x0
 804b56a:	6a 00                	push   $0x0
 804b56c:	6a 00                	push   $0x0
 804b56e:	50                   	push   %eax
 804b56f:	e8 8c ff ff ff       	call   804b500 
 804b574:	83 c4 20             	add    $0x20,%esp
 804b577:	83 c4 08             	add    $0x8,%esp
 804b57a:	5b                   	pop    %ebx
 804b57b:	c3                   	ret    
 804b57c:	66 90                	xchg   %ax,%ax
 804b57e:	66 90                	xchg   %ax,%ax
 804b580:	55                   	push   %ebp
 804b581:	57                   	push   %edi
 804b582:	56                   	push   %esi
 804b583:	53                   	push   %ebx
 804b584:	e8 b7 e9 ff ff       	call   8049f40 
 804b589:	81 c3 77 8a 00 00    	add    $0x8a77,%ebx
 804b58f:	83 ec 0c             	sub    $0xc,%esp
 804b592:	8b 44 24 28          	mov    0x28(%esp),%eax
 804b596:	8b 74 24 20          	mov    0x20(%esp),%esi
 804b59a:	8b 7c 24 24          	mov    0x24(%esp),%edi
 804b59e:	8d 68 14             	lea    0x14(%eax),%ebp
 804b5a1:	c6 40 14 00          	movb   $0x0,0x14(%eax)
 804b5a5:	8d 76 00             	lea    0x0(%esi),%esi
 804b5a8:	6a 00                	push   $0x0
 804b5aa:	6a 0a                	push   $0xa
 804b5ac:	83 ed 01             	sub    $0x1,%ebp
 804b5af:	57                   	push   %edi
 804b5b0:	56                   	push   %esi
 804b5b1:	e8 5a 34 00 00       	call   804ea10 
 804b5b6:	83 c4 10             	add    $0x10,%esp
 804b5b9:	83 c0 30             	add    $0x30,%eax
 804b5bc:	88 45 00             	mov    %al,0x0(%ebp)
 804b5bf:	6a 00                	push   $0x0
 804b5c1:	6a 0a                	push   $0xa
 804b5c3:	57                   	push   %edi
 804b5c4:	56                   	push   %esi
 804b5c5:	e8 16 33 00 00       	call   804e8e0 
 804b5ca:	89 c6                	mov    %eax,%esi
 804b5cc:	89 d0                	mov    %edx,%eax
 804b5ce:	83 c4 10             	add    $0x10,%esp
 804b5d1:	09 f0                	or     %esi,%eax
 804b5d3:	89 d7                	mov    %edx,%edi
 804b5d5:	75 d1                	jne    804b5a8 
 804b5d7:	83 c4 0c             	add    $0xc,%esp
 804b5da:	89 e8                	mov    %ebp,%eax
 804b5dc:	5b                   	pop    %ebx
 804b5dd:	5e                   	pop    %esi
 804b5de:	5f                   	pop    %edi
 804b5df:	5d                   	pop    %ebp
 804b5e0:	c3                   	ret    
 804b5e1:	66 90                	xchg   %ax,%ax
 804b5e3:	66 90                	xchg   %ax,%ax
 804b5e5:	66 90                	xchg   %ax,%ax
 804b5e7:	66 90                	xchg   %ax,%ax
 804b5e9:	66 90                	xchg   %ax,%ax
 804b5eb:	66 90                	xchg   %ax,%ax
 804b5ed:	66 90                	xchg   %ax,%ax
 804b5ef:	90                   	nop
 804b5f0:	56                   	push   %esi
 804b5f1:	53                   	push   %ebx
 804b5f2:	e8 49 e9 ff ff       	call   8049f40 
 804b5f7:	81 c3 09 8a 00 00    	add    $0x8a09,%ebx
 804b5fd:	83 ec 10             	sub    $0x10,%esp
 804b600:	8b 74 24 1c          	mov    0x1c(%esp),%esi
 804b604:	56                   	push   %esi
 804b605:	e8 f6 d9 ff ff       	call   8049000 
 804b60a:	83 c4 10             	add    $0x10,%esp
 804b60d:	85 c0                	test   %eax,%eax
 804b60f:	79 14                	jns    804b625 
 804b611:	83 ec 0c             	sub    $0xc,%esp
 804b614:	56                   	push   %esi
 804b615:	e8 96 da ff ff       	call   80490b0 
 804b61a:	83 c4 10             	add    $0x10,%esp
 804b61d:	85 c0                	test   %eax,%eax
 804b61f:	0f 94 c0             	sete   %al
 804b622:	0f b6 c0             	movzbl %al,%eax
 804b625:	83 c4 04             	add    $0x4,%esp
 804b628:	5b                   	pop    %ebx
 804b629:	5e                   	pop    %esi
 804b62a:	c3                   	ret    
 804b62b:	90                   	nop
 804b62c:	8d 74 26 00          	lea    0x0(%esi,%eiz,1),%esi
 804b630:	55                   	push   %ebp
 804b631:	57                   	push   %edi
 804b632:	56                   	push   %esi
 804b633:	53                   	push   %ebx
 804b634:	e8 07 e9 ff ff       	call   8049f40 
 804b639:	81 c3 c7 89 00 00    	add    $0x89c7,%ebx
 804b63f:	83 ec 0c             	sub    $0xc,%esp
 804b642:	8b 74 24 24          	mov    0x24(%esp),%esi
 804b646:	8b 7c 24 20          	mov    0x20(%esp),%edi
 804b64a:	8b 06                	mov    (%esi),%eax
 804b64c:	8d 56 10             	lea    0x10(%esi),%edx
 804b64f:	39 d0                	cmp    %edx,%eax
 804b651:	74 25                	je     804b678 
 804b653:	89 07                	mov    %eax,(%edi)
 804b655:	8b 46 04             	mov    0x4(%esi),%eax
 804b658:	89 47 04             	mov    %eax,0x4(%edi)
 804b65b:	0f b6 46 08          	movzbl 0x8(%esi),%eax
 804b65f:	84 c0                	test   %al,%al
 804b661:	88 47 08             	mov    %al,0x8(%edi)
 804b664:	74 06                	je     804b66c 
 804b666:	8b 46 0c             	mov    0xc(%esi),%eax
 804b669:	89 47 0c             	mov    %eax,0xc(%edi)
 804b66c:	83 c4 0c             	add    $0xc,%esp
 804b66f:	5b                   	pop    %ebx
 804b670:	5e                   	pop    %esi
 804b671:	5f                   	pop    %edi
 804b672:	5d                   	pop    %ebp
 804b673:	c3                   	ret    
 804b674:	8d 74 26 00          	lea    0x0(%esi,%eiz,1),%esi
 804b678:	8d 6f 10             	lea    0x10(%edi),%ebp
 804b67b:	83 ec 04             	sub    $0x4,%esp
 804b67e:	ff 76 04             	pushl  0x4(%esi)
 804b681:	50                   	push   %eax
 804b682:	55                   	push   %ebp
 804b683:	e8 98 d9 ff ff       	call   8049020 
 804b688:	89 2f                	mov    %ebp,(%edi)
 804b68a:	83 c4 10             	add    $0x10,%esp
 804b68d:	eb c6                	jmp    804b655 
 804b68f:	90                   	nop
 804b690:	8b 4c 24 04          	mov    0x4(%esp),%ecx
 804b694:	e8 5d fe ff ff       	call   804b4f6 
 804b699:	05 67 89 00 00       	add    $0x8967,%eax
 804b69e:	8d 90 a0 b4 ff ff    	lea    -0x4b60(%eax),%edx
 804b6a4:	89 c8                	mov    %ecx,%eax
 804b6a6:	83 e1 1f             	and    $0x1f,%ecx
 804b6a9:	c0 e8 05             	shr    $0x5,%al
 804b6ac:	0f b6 c0             	movzbl %al,%eax
 804b6af:	8b 04 82             	mov    (%edx,%eax,4),%eax
 804b6b2:	d3 e8                	shr    %cl,%eax
 804b6b4:	83 e0 01             	and    $0x1,%eax
 804b6b7:	c3                   	ret    
 804b6b8:	66 90                	xchg   %ax,%ax
 804b6ba:	66 90                	xchg   %ax,%ax
 804b6bc:	66 90                	xchg   %ax,%ax
 804b6be:	66 90                	xchg   %ax,%ax
 804b6c0:	53                   	push   %ebx
 804b6c1:	e8 7a e8 ff ff       	call   8049f40 
 804b6c6:	81 c3 3a 89 00 00    	add    $0x893a,%ebx
 804b6cc:	81 ec 84 00 00 00    	sub    $0x84,%esp
 804b6d2:	65 a1 14 00 00 00    	mov    %gs:0x14,%eax
 804b6d8:	89 44 24 78          	mov    %eax,0x78(%esp)
 804b6dc:	31 c0                	xor    %eax,%eax
 804b6de:	6a 55                	push   $0x55
 804b6e0:	e8 bb d9 ff ff       	call   80490a0 
 804b6e5:	89 44 24 18          	mov    %eax,0x18(%esp)
 804b6e9:	c7 04 24 1e 00 00 00 	movl   $0x1e,(%esp)
 804b6f0:	db 44 24 18          	fildl  0x18(%esp)
 804b6f4:	dd 5c 24 20          	fstpl  0x20(%esp)
 804b6f8:	e8 a3 d9 ff ff       	call   80490a0 
 804b6fd:	89 44 24 18          	mov    %eax,0x18(%esp)
 804b701:	db 44 24 18          	fildl  0x18(%esp)
 804b705:	83 c4 10             	add    $0x10,%esp
 804b708:	d9 ee                	fldz   
 804b70a:	dd 44 24 10          	fldl   0x10(%esp)
 804b70e:	dd e1                	fucom  %st(1)
 804b710:	df e0                	fnstsw %ax
 804b712:	9e                   	sahf   
 804b713:	72 43                	jb     804b758 
 804b715:	d9 ca                	fxch   %st(2)
 804b717:	dd e1                	fucom  %st(1)
 804b719:	df e0                	fnstsw %ax
 804b71b:	dd d9                	fstp   %st(1)
 804b71d:	9e                   	sahf   
 804b71e:	72 40                	jb     804b760 
 804b720:	de c9                	fmulp  %st,%st(1)
 804b722:	d9 83 c4 b4 ff ff    	flds   -0x4b3c(%ebx)
 804b728:	d9 c0                	fld    %st(0)
 804b72a:	d9 ca                	fxch   %st(2)
 804b72c:	dd e2                	fucom  %st(2)
 804b72e:	df e0                	fnstsw %ax
 804b730:	dd da                	fstp   %st(2)
 804b732:	9e                   	sahf   
 804b733:	77 1b                	ja     804b750 
 804b735:	dd d8                	fstp   %st(0)
 804b737:	8b 44 24 6c          	mov    0x6c(%esp),%eax
 804b73b:	65 33 05 14 00 00 00 	xor    %gs:0x14,%eax
 804b742:	75 64                	jne    804b7a8 
 804b744:	83 c4 78             	add    $0x78,%esp
 804b747:	5b                   	pop    %ebx
 804b748:	c3                   	ret    
 804b749:	8d b4 26 00 00 00 00 	lea    0x0(%esi,%eiz,1),%esi
 804b750:	dd d9                	fstp   %st(1)
 804b752:	eb e3                	jmp    804b737 
 804b754:	8d 74 26 00          	lea    0x0(%esi,%eiz,1),%esi
 804b758:	dd d8                	fstp   %st(0)
 804b75a:	dd d8                	fstp   %st(0)
 804b75c:	dd d8                	fstp   %st(0)
 804b75e:	eb 04                	jmp    804b764 
 804b760:	dd d8                	fstp   %st(0)
 804b762:	dd d8                	fstp   %st(0)
 804b764:	83 ec 0c             	sub    $0xc,%esp
 804b767:	8d 44 24 38          	lea    0x38(%esp),%eax
 804b76b:	50                   	push   %eax
 804b76c:	e8 1f da ff ff       	call   8049190 
 804b771:	83 c4 10             	add    $0x10,%esp
 804b774:	85 c0                	test   %eax,%eax
 804b776:	74 08                	je     804b780 
 804b778:	d9 83 c0 b4 ff ff    	flds   -0x4b40(%ebx)
 804b77e:	eb b7                	jmp    804b737 
 804b780:	8b 44 24 3c          	mov    0x3c(%esp),%eax
 804b784:	31 d2                	xor    %edx,%edx
 804b786:	89 54 24 0c          	mov    %edx,0xc(%esp)
 804b78a:	31 d2                	xor    %edx,%edx
 804b78c:	89 44 24 08          	mov    %eax,0x8(%esp)
 804b790:	8b 44 24 60          	mov    0x60(%esp),%eax
 804b794:	df 6c 24 08          	fildll 0x8(%esp)
 804b798:	89 54 24 0c          	mov    %edx,0xc(%esp)
 804b79c:	89 44 24 08          	mov    %eax,0x8(%esp)
 804b7a0:	df 6c 24 08          	fildll 0x8(%esp)
 804b7a4:	de c9                	fmulp  %st,%st(1)
 804b7a6:	eb 8f                	jmp    804b737 
 804b7a8:	dd d8                	fstp   %st(0)
 804b7aa:	e8 71 34 00 00       	call   804ec20 
 804b7af:	90                   	nop
 804b7b0:	53                   	push   %ebx
 804b7b1:	e8 8a e7 ff ff       	call   8049f40 
 804b7b6:	81 c3 4a 88 00 00    	add    $0x884a,%ebx
 804b7bc:	81 ec 84 00 00 00    	sub    $0x84,%esp
 804b7c2:	65 a1 14 00 00 00    	mov    %gs:0x14,%eax
 804b7c8:	89 44 24 78          	mov    %eax,0x78(%esp)
 804b7cc:	31 c0                	xor    %eax,%eax
 804b7ce:	6a 56                	push   $0x56
 804b7d0:	e8 cb d8 ff ff       	call   80490a0 
 804b7d5:	89 44 24 18          	mov    %eax,0x18(%esp)
 804b7d9:	c7 04 24 1e 00 00 00 	movl   $0x1e,(%esp)
 804b7e0:	db 44 24 18          	fildl  0x18(%esp)
 804b7e4:	dd 5c 24 20          	fstpl  0x20(%esp)
 804b7e8:	e8 b3 d8 ff ff       	call   80490a0 
 804b7ed:	89 44 24 18          	mov    %eax,0x18(%esp)
 804b7f1:	db 44 24 18          	fildl  0x18(%esp)
 804b7f5:	83 c4 10             	add    $0x10,%esp
 804b7f8:	d9 ee                	fldz   
 804b7fa:	dd 44 24 10          	fldl   0x10(%esp)
 804b7fe:	dd e1                	fucom  %st(1)
 804b800:	df e0                	fnstsw %ax
 804b802:	9e                   	sahf   
 804b803:	72 23                	jb     804b828 
 804b805:	d9 ca                	fxch   %st(2)
 804b807:	dd e1                	fucom  %st(1)
 804b809:	df e0                	fnstsw %ax
 804b80b:	dd d9                	fstp   %st(1)
 804b80d:	9e                   	sahf   
 804b80e:	72 20                	jb     804b830 
 804b810:	de c9                	fmulp  %st,%st(1)
 804b812:	8b 44 24 6c          	mov    0x6c(%esp),%eax
 804b816:	65 33 05 14 00 00 00 	xor    %gs:0x14,%eax
 804b81d:	75 79                	jne    804b898 
 804b81f:	83 c4 78             	add    $0x78,%esp
 804b822:	5b                   	pop    %ebx
 804b823:	c3                   	ret    
 804b824:	8d 74 26 00          	lea    0x0(%esi,%eiz,1),%esi
 804b828:	dd d8                	fstp   %st(0)
 804b82a:	dd d8                	fstp   %st(0)
 804b82c:	dd d8                	fstp   %st(0)
 804b82e:	eb 04                	jmp    804b834 
 804b830:	dd d8                	fstp   %st(0)
 804b832:	dd d8                	fstp   %st(0)
 804b834:	83 ec 0c             	sub    $0xc,%esp
 804b837:	8d 44 24 38          	lea    0x38(%esp),%eax
 804b83b:	50                   	push   %eax
 804b83c:	e8 4f d9 ff ff       	call   8049190 
 804b841:	83 c4 10             	add    $0x10,%esp
 804b844:	85 c0                	test   %eax,%eax
 804b846:	75 40                	jne    804b888 
 804b848:	8b 44 24 40          	mov    0x40(%esp),%eax
 804b84c:	31 d2                	xor    %edx,%edx
 804b84e:	89 54 24 0c          	mov    %edx,0xc(%esp)
 804b852:	31 d2                	xor    %edx,%edx
 804b854:	89 44 24 08          	mov    %eax,0x8(%esp)
 804b858:	8b 44 24 48          	mov    0x48(%esp),%eax
 804b85c:	df 6c 24 08          	fildll 0x8(%esp)
 804b860:	89 54 24 0c          	mov    %edx,0xc(%esp)
 804b864:	31 d2                	xor    %edx,%edx
 804b866:	89 44 24 08          	mov    %eax,0x8(%esp)
 804b86a:	8b 44 24 60          	mov    0x60(%esp),%eax
 804b86e:	df 6c 24 08          	fildll 0x8(%esp)
 804b872:	89 54 24 0c          	mov    %edx,0xc(%esp)
 804b876:	de c1                	faddp  %st,%st(1)
 804b878:	89 44 24 08          	mov    %eax,0x8(%esp)
 804b87c:	df 6c 24 08          	fildll 0x8(%esp)
 804b880:	d9 c9                	fxch   %st(1)
 804b882:	eb 8c                	jmp    804b810 
 804b884:	8d 74 26 00          	lea    0x0(%esi,%eiz,1),%esi
 804b888:	e8 33 fe ff ff       	call   804b6c0 
 804b88d:	d8 8b c8 b4 ff ff    	fmuls  -0x4b38(%ebx)
 804b893:	e9 7a ff ff ff       	jmp    804b812 
 804b898:	dd d8                	fstp   %st(0)
 804b89a:	e8 81 33 00 00       	call   804ec20 
 804b89f:	90                   	nop
 804b8a0:	55                   	push   %ebp
 804b8a1:	57                   	push   %edi
 804b8a2:	56                   	push   %esi
 804b8a3:	53                   	push   %ebx
 804b8a4:	e8 97 e6 ff ff       	call   8049f40 
 804b8a9:	81 c3 57 87 00 00    	add    $0x8757,%ebx
 804b8af:	83 ec 1c             	sub    $0x1c,%esp
 804b8b2:	8b 6c 24 30          	mov    0x30(%esp),%ebp
 804b8b6:	85 ed                	test   %ebp,%ebp
 804b8b8:	0f 84 82 00 00 00    	je     804b940 
 804b8be:	83 ec 08             	sub    $0x8,%esp
 804b8c1:	6a 2f                	push   $0x2f
 804b8c3:	55                   	push   %ebp
 804b8c4:	e8 57 da ff ff       	call   8049320 
 804b8c9:	83 c4 10             	add    $0x10,%esp
 804b8cc:	85 c0                	test   %eax,%eax
 804b8ce:	74 58                	je     804b928 
 804b8d0:	8d 50 01             	lea    0x1(%eax),%edx
 804b8d3:	89 d1                	mov    %edx,%ecx
 804b8d5:	89 54 24 0c          	mov    %edx,0xc(%esp)
 804b8d9:	29 e9                	sub    %ebp,%ecx
 804b8db:	83 f9 06             	cmp    $0x6,%ecx
 804b8de:	7e 48                	jle    804b928 
 804b8e0:	8d 70 fa             	lea    -0x6(%eax),%esi
 804b8e3:	8d bb 04 b5 ff ff    	lea    -0x4afc(%ebx),%edi
 804b8e9:	b9 07 00 00 00       	mov    $0x7,%ecx
 804b8ee:	f3 a6                	repz cmpsb %es:(%edi),%ds:(%esi)
 804b8f0:	0f 97 c1             	seta   %cl
 804b8f3:	89 ce                	mov    %ecx,%esi
 804b8f5:	0f 92 c1             	setb   %cl
 804b8f8:	89 f2                	mov    %esi,%edx
 804b8fa:	38 ca                	cmp    %cl,%dl
 804b8fc:	75 2a                	jne    804b928 
 804b8fe:	8b 74 24 0c          	mov    0xc(%esp),%esi
 804b902:	8d bb 0c b5 ff ff    	lea    -0x4af4(%ebx),%edi
 804b908:	b9 03 00 00 00       	mov    $0x3,%ecx
 804b90d:	8b 6c 24 0c          	mov    0xc(%esp),%ebp
 804b911:	f3 a6                	repz cmpsb %es:(%edi),%ds:(%esi)
 804b913:	0f 97 c2             	seta   %dl
 804b916:	0f 92 c1             	setb   %cl
 804b919:	38 ca                	cmp    %cl,%dl
 804b91b:	75 0b                	jne    804b928 
 804b91d:	8d 68 04             	lea    0x4(%eax),%ebp
 804b920:	8b 83 dc ff ff ff    	mov    -0x24(%ebx),%eax
 804b926:	89 28                	mov    %ebp,(%eax)
 804b928:	8d 83 f0 01 00 00    	lea    0x1f0(%ebx),%eax
 804b92e:	89 28                	mov    %ebp,(%eax)
 804b930:	8b 83 d4 ff ff ff    	mov    -0x2c(%ebx),%eax
 804b936:	89 28                	mov    %ebp,(%eax)
 804b938:	83 c4 1c             	add    $0x1c,%esp
 804b93b:	5b                   	pop    %ebx
 804b93c:	5e                   	pop    %esi
 804b93d:	5f                   	pop    %edi
 804b93e:	5d                   	pop    %ebp
 804b93f:	c3                   	ret    
 804b940:	8b 83 b4 ff ff ff    	mov    -0x4c(%ebx),%eax
 804b946:	ff 30                	pushl  (%eax)
 804b948:	8d 83 cc b4 ff ff    	lea    -0x4b34(%ebx),%eax
 804b94e:	6a 37                	push   $0x37
 804b950:	6a 01                	push   $0x1
 804b952:	50                   	push   %eax
 804b953:	e8 98 d7 ff ff       	call   80490f0 
 804b958:	e8 43 da ff ff       	call   80493a0 
 804b95d:	66 90                	xchg   %ax,%ax
 804b95f:	90                   	nop
 804b960:	57                   	push   %edi
 804b961:	56                   	push   %esi
 804b962:	89 c6                	mov    %eax,%esi
 804b964:	53                   	push   %ebx
 804b965:	31 c0                	xor    %eax,%eax
 804b967:	b9 0c 00 00 00       	mov    $0xc,%ecx
 804b96c:	e8 cf e5 ff ff       	call   8049f40 
 804b971:	81 c3 8f 86 00 00    	add    $0x868f,%ebx
 804b977:	89 f7                	mov    %esi,%edi
 804b979:	83 fa 0a             	cmp    $0xa,%edx
 804b97c:	f3 ab                	rep stos %eax,%es:(%edi)
 804b97e:	74 08                	je     804b988 
 804b980:	89 f0                	mov    %esi,%eax
 804b982:	89 16                	mov    %edx,(%esi)
 804b984:	5b                   	pop    %ebx
 804b985:	5e                   	pop    %esi
 804b986:	5f                   	pop    %edi
 804b987:	c3                   	ret    
 804b988:	e8 13 da ff ff       	call   80493a0 
 804b98d:	8d 76 00             	lea    0x0(%esi),%esi
 804b990:	57                   	push   %edi
 804b991:	56                   	push   %esi
 804b992:	89 d7                	mov    %edx,%edi
 804b994:	53                   	push   %ebx
 804b995:	89 c6                	mov    %eax,%esi
 804b997:	e8 a4 e5 ff ff       	call   8049f40 
 804b99c:	81 c3 64 86 00 00    	add    $0x8664,%ebx
 804b9a2:	e8 f9 2a 00 00       	call   804e4a0 
 804b9a7:	0f b6 10             	movzbl (%eax),%edx
 804b9aa:	83 e2 df             	and    $0xffffffdf,%edx
 804b9ad:	80 fa 55             	cmp    $0x55,%dl
 804b9b0:	75 46                	jne    804b9f8 
 804b9b2:	0f b6 50 01          	movzbl 0x1(%eax),%edx
 804b9b6:	83 e2 df             	and    $0xffffffdf,%edx
 804b9b9:	80 fa 54             	cmp    $0x54,%dl
 804b9bc:	75 4b                	jne    804ba09 
 804b9be:	0f b6 50 02          	movzbl 0x2(%eax),%edx
 804b9c2:	83 e2 df             	and    $0xffffffdf,%edx
 804b9c5:	80 fa 46             	cmp    $0x46,%dl
 804b9c8:	75 3f                	jne    804ba09 
 804b9ca:	80 78 03 2d          	cmpb   $0x2d,0x3(%eax)
 804b9ce:	75 39                	jne    804ba09 
 804b9d0:	80 78 04 38          	cmpb   $0x38,0x4(%eax)
 804b9d4:	75 33                	jne    804ba09 
 804b9d6:	80 78 05 00          	cmpb   $0x0,0x5(%eax)
 804b9da:	75 2d                	jne    804ba09 
 804b9dc:	80 3e 60             	cmpb   $0x60,(%esi)
 804b9df:	8d 83 14 b5 ff ff    	lea    -0x4aec(%ebx),%eax
 804b9e5:	75 2d                	jne    804ba14 
 804b9e7:	8d 83 10 b5 ff ff    	lea    -0x4af0(%ebx),%eax
 804b9ed:	5b                   	pop    %ebx
 804b9ee:	5e                   	pop    %esi
 804b9ef:	5f                   	pop    %edi
 804b9f0:	c3                   	ret    
 804b9f1:	8d b4 26 00 00 00 00 	lea    0x0(%esi,%eiz,1),%esi
 804b9f8:	80 fa 47             	cmp    $0x47,%dl
 804b9fb:	75 0c                	jne    804ba09 
 804b9fd:	0f b6 50 01          	movzbl 0x1(%eax),%edx
 804ba01:	83 e2 df             	and    $0xffffffdf,%edx
 804ba04:	80 fa 42             	cmp    $0x42,%dl
 804ba07:	74 17                	je     804ba20 
 804ba09:	83 ff 09             	cmp    $0x9,%edi
 804ba0c:	74 4a                	je     804ba58 
 804ba0e:	8d 83 21 b5 ff ff    	lea    -0x4adf(%ebx),%eax
 804ba14:	5b                   	pop    %ebx
 804ba15:	5e                   	pop    %esi
 804ba16:	5f                   	pop    %edi
 804ba17:	c3                   	ret    
 804ba18:	90                   	nop
 804ba19:	8d b4 26 00 00 00 00 	lea    0x0(%esi,%eiz,1),%esi
 804ba20:	80 78 02 31          	cmpb   $0x31,0x2(%eax)
 804ba24:	75 e3                	jne    804ba09 
 804ba26:	80 78 03 38          	cmpb   $0x38,0x3(%eax)
 804ba2a:	75 dd                	jne    804ba09 
 804ba2c:	80 78 04 30          	cmpb   $0x30,0x4(%eax)
 804ba30:	75 d7                	jne    804ba09 
 804ba32:	80 78 05 33          	cmpb   $0x33,0x5(%eax)
 804ba36:	75 d1                	jne    804ba09 
 804ba38:	80 78 06 30          	cmpb   $0x30,0x6(%eax)
 804ba3c:	75 cb                	jne    804ba09 
 804ba3e:	80 78 07 00          	cmpb   $0x0,0x7(%eax)
 804ba42:	75 c5                	jne    804ba09 
 804ba44:	80 3e 60             	cmpb   $0x60,(%esi)
 804ba47:	74 17                	je     804ba60 
 804ba49:	8d 83 1c b5 ff ff    	lea    -0x4ae4(%ebx),%eax
 804ba4f:	5b                   	pop    %ebx
 804ba50:	5e                   	pop    %esi
 804ba51:	5f                   	pop    %edi
 804ba52:	c3                   	ret    
 804ba53:	90                   	nop
 804ba54:	8d 74 26 00          	lea    0x0(%esi,%eiz,1),%esi
 804ba58:	8d 83 1f b5 ff ff    	lea    -0x4ae1(%ebx),%eax
 804ba5e:	eb b4                	jmp    804ba14 
 804ba60:	8d 83 18 b5 ff ff    	lea    -0x4ae8(%ebx),%eax
 804ba66:	eb ac                	jmp    804ba14 
 804ba68:	90                   	nop
 804ba69:	8d b4 26 00 00 00 00 	lea    0x0(%esi,%eiz,1),%esi
 804ba70:	55                   	push   %ebp
 804ba71:	57                   	push   %edi
 804ba72:	56                   	push   %esi
 804ba73:	53                   	push   %ebx
 804ba74:	e8 1a 18 00 00       	call   804d293 
 804ba79:	81 c6 87 85 00 00    	add    $0x8587,%esi
 804ba7f:	83 ec 6c             	sub    $0x6c,%esp
 804ba82:	89 44 24 08          	mov    %eax,0x8(%esp)
 804ba86:	8b 84 24 8c 00 00 00 	mov    0x8c(%esp),%eax
 804ba8d:	89 f7                	mov    %esi,%edi
 804ba8f:	89 fb                	mov    %edi,%ebx
 804ba91:	89 74 24 14          	mov    %esi,0x14(%esp)
 804ba95:	89 4c 24 0c          	mov    %ecx,0xc(%esp)
 804ba99:	89 d6                	mov    %edx,%esi
 804ba9b:	89 44 24 24          	mov    %eax,0x24(%esp)
 804ba9f:	8b 84 24 90 00 00 00 	mov    0x90(%esp),%eax
 804baa6:	89 44 24 40          	mov    %eax,0x40(%esp)
 804baaa:	8b 84 24 94 00 00 00 	mov    0x94(%esp),%eax
 804bab1:	89 44 24 3c          	mov    %eax,0x3c(%esp)
 804bab5:	65 a1 14 00 00 00    	mov    %gs:0x14,%eax
 804babb:	89 44 24 5c          	mov    %eax,0x5c(%esp)
 804babf:	31 c0                	xor    %eax,%eax
 804bac1:	e8 4a d6 ff ff       	call   8049110 
 804bac6:	8b ac 24 88 00 00 00 	mov    0x88(%esp),%ebp
 804bacd:	89 44 24 44          	mov    %eax,0x44(%esp)
 804bad1:	83 e5 02             	and    $0x2,%ebp
 804bad4:	83 bc 24 84 00 00 00 	cmpl   $0xa,0x84(%esp)
 804badb:	0a 
 804badc:	0f 87 04 0c 00 00    	ja     804c6e6 
 804bae2:	8b 94 24 84 00 00 00 	mov    0x84(%esp),%edx
 804bae9:	8b 84 97 80 b5 ff ff 	mov    -0x4a80(%edi,%edx,4),%eax
 804baf0:	01 f8                	add    %edi,%eax
 804baf2:	ff e0                	jmp    *%eax
 804baf4:	c6 44 24 1d 00       	movb   $0x0,0x1d(%esp)
 804baf9:	8b 44 24 14          	mov    0x14(%esp),%eax
 804bafd:	c6 44 24 1e 01       	movb   $0x1,0x1e(%esp)
 804bb02:	31 ff                	xor    %edi,%edi
 804bb04:	c7 44 24 20 01 00 00 	movl   $0x1,0x20(%esp)
 804bb0b:	00 
 804bb0c:	c7 84 24 84 00 00 00 	movl   $0x2,0x84(%esp)
 804bb13:	02 00 00 00 
 804bb17:	8d 80 21 b5 ff ff    	lea    -0x4adf(%eax),%eax
 804bb1d:	89 44 24 30          	mov    %eax,0x30(%esp)
 804bb21:	8d b4 26 00 00 00 00 	lea    0x0(%esi,%eiz,1),%esi
 804bb28:	8d 44 24 54          	lea    0x54(%esp),%eax
 804bb2c:	c6 44 24 10 00       	movb   $0x0,0x10(%esp)
 804bb31:	31 ed                	xor    %ebp,%ebp
 804bb33:	89 44 24 28          	mov    %eax,0x28(%esp)
 804bb37:	8d 44 24 50          	lea    0x50(%esp),%eax
 804bb3b:	89 44 24 34          	mov    %eax,0x34(%esp)
 804bb3f:	90                   	nop
 804bb40:	39 ac 24 80 00 00 00 	cmp    %ebp,0x80(%esp)
 804bb47:	0f 95 c1             	setne  %cl
 804bb4a:	83 bc 24 80 00 00 00 	cmpl   $0xffffffff,0x80(%esp)
 804bb51:	ff 
 804bb52:	0f 84 e8 08 00 00    	je     804c440 
 804bb58:	84 c9                	test   %cl,%cl
 804bb5a:	0f 84 f3 08 00 00    	je     804c453 
 804bb60:	8b 5c 24 20          	mov    0x20(%esp),%ebx
 804bb64:	85 db                	test   %ebx,%ebx
 804bb66:	0f 95 44 24 1c       	setne  0x1c(%esp)
 804bb6b:	83 bc 24 84 00 00 00 	cmpl   $0x2,0x84(%esp)
 804bb72:	02 
 804bb73:	0f b6 5c 24 1c       	movzbl 0x1c(%esp),%ebx
 804bb78:	0f 95 c0             	setne  %al
 804bb7b:	84 c3                	test   %al,%bl
 804bb7d:	0f 84 8d 08 00 00    	je     804c410 
 804bb83:	80 7c 24 1d 00       	cmpb   $0x0,0x1d(%esp)
 804bb88:	0f 84 82 08 00 00    	je     804c410 
 804bb8e:	8b 44 24 20          	mov    0x20(%esp),%eax
 804bb92:	83 bc 24 80 00 00 00 	cmpl   $0xffffffff,0x80(%esp)
 804bb99:	ff 
 804bb9a:	8d 5c 05 00          	lea    0x0(%ebp,%eax,1),%ebx
 804bb9e:	89 5c 24 04          	mov    %ebx,0x4(%esp)
 804bba2:	75 28                	jne    804bbcc 
 804bba4:	83 f8 01             	cmp    $0x1,%eax
 804bba7:	76 23                	jbe    804bbcc 
 804bba9:	88 4c 24 18          	mov    %cl,0x18(%esp)
 804bbad:	83 ec 0c             	sub    $0xc,%esp
 804bbb0:	ff 74 24 18          	pushl  0x18(%esp)
 804bbb4:	8b 5c 24 24          	mov    0x24(%esp),%ebx
 804bbb8:	e8 93 d6 ff ff       	call   8049250 
 804bbbd:	83 c4 10             	add    $0x10,%esp
 804bbc0:	0f b6 4c 24 18       	movzbl 0x18(%esp),%ecx
 804bbc5:	89 84 24 80 00 00 00 	mov    %eax,0x80(%esp)
 804bbcc:	8b 44 24 04          	mov    0x4(%esp),%eax
 804bbd0:	39 84 24 80 00 00 00 	cmp    %eax,0x80(%esp)
 804bbd7:	0f 82 33 08 00 00    	jb     804c410 
 804bbdd:	8b 44 24 0c          	mov    0xc(%esp),%eax
 804bbe1:	88 4c 24 04          	mov    %cl,0x4(%esp)
 804bbe5:	83 ec 04             	sub    $0x4,%esp
 804bbe8:	01 e8                	add    %ebp,%eax
 804bbea:	89 44 24 1c          	mov    %eax,0x1c(%esp)
 804bbee:	ff 74 24 24          	pushl  0x24(%esp)
 804bbf2:	ff 74 24 38          	pushl  0x38(%esp)
 804bbf6:	50                   	push   %eax
 804bbf7:	8b 5c 24 24          	mov    0x24(%esp),%ebx
 804bbfb:	e8 70 d4 ff ff       	call   8049070 
 804bc00:	83 c4 10             	add    $0x10,%esp
 804bc03:	85 c0                	test   %eax,%eax
 804bc05:	0f b6 4c 24 04       	movzbl 0x4(%esp),%ecx
 804bc0a:	0f 85 b0 08 00 00    	jne    804c4c0 
 804bc10:	80 7c 24 1e 00       	cmpb   $0x0,0x1e(%esp)
 804bc15:	0f 85 c8 01 00 00    	jne    804bde3 
 804bc1b:	c6 44 24 1f 01       	movb   $0x1,0x1f(%esp)
 804bc20:	8b 44 24 18          	mov    0x18(%esp),%eax
 804bc24:	0f b6 00             	movzbl (%eax),%eax
 804bc27:	3c 7e                	cmp    $0x7e,%al
 804bc29:	88 44 24 04          	mov    %al,0x4(%esp)
 804bc2d:	0f 87 b5 04 00 00    	ja     804c0e8 
 804bc33:	8b 5c 24 14          	mov    0x14(%esp),%ebx
 804bc37:	8b 94 83 ac b5 ff ff 	mov    -0x4a54(%ebx,%eax,4),%edx
 804bc3e:	01 da                	add    %ebx,%edx
 804bc40:	ff e2                	jmp    *%edx
 804bc42:	8d b6 00 00 00 00    	lea    0x0(%esi),%esi
 804bc48:	83 bc 24 80 00 00 00 	cmpl   $0x1,0x80(%esp)
 804bc4f:	01 
 804bc50:	0f 95 c0             	setne  %al
 804bc53:	83 bc 24 80 00 00 00 	cmpl   $0xffffffff,0x80(%esp)
 804bc5a:	ff 
 804bc5b:	0f 84 0f 0a 00 00    	je     804c670 
 804bc61:	84 c0                	test   %al,%al
 804bc63:	0f 84 97 00 00 00    	je     804bd00 
 804bc69:	8d b4 26 00 00 00 00 	lea    0x0(%esi,%eiz,1),%esi
 804bc70:	83 bc 24 84 00 00 00 	cmpl   $0x2,0x84(%esp)
 804bc77:	02 
 804bc78:	0f 94 c2             	sete   %dl
 804bc7b:	31 c0                	xor    %eax,%eax
 804bc7d:	38 54 24 1d          	cmp    %dl,0x1d(%esp)
 804bc81:	0f 86 2c 01 00 00    	jbe    804bdb3 
 804bc87:	8b 4c 24 24          	mov    0x24(%esp),%ecx
 804bc8b:	85 c9                	test   %ecx,%ecx
 804bc8d:	74 1b                	je     804bcaa 
 804bc8f:	0f b6 5c 24 04       	movzbl 0x4(%esp),%ebx
 804bc94:	89 da                	mov    %ebx,%edx
 804bc96:	c0 ea 05             	shr    $0x5,%dl
 804bc99:	0f b6 d2             	movzbl %dl,%edx
 804bc9c:	8b 14 91             	mov    (%ecx,%edx,4),%edx
 804bc9f:	89 d9                	mov    %ebx,%ecx
 804bca1:	0f a3 ca             	bt     %ecx,%edx
 804bca4:	0f 82 7e 07 00 00    	jb     804c428 
 804bcaa:	80 7c 24 1f 00       	cmpb   $0x0,0x1f(%esp)
 804bcaf:	0f 85 73 07 00 00    	jne    804c428 
 804bcb5:	83 c5 01             	add    $0x1,%ebp
 804bcb8:	0f b6 54 24 04       	movzbl 0x4(%esp),%edx
 804bcbd:	38 44 24 10          	cmp    %al,0x10(%esp)
 804bcc1:	76 24                	jbe    804bce7 
 804bcc3:	39 f7                	cmp    %esi,%edi
 804bcc5:	73 08                	jae    804bccf 
 804bcc7:	8b 44 24 08          	mov    0x8(%esp),%eax
 804bccb:	c6 04 38 27          	movb   $0x27,(%eax,%edi,1)
 804bccf:	8d 47 01             	lea    0x1(%edi),%eax
 804bcd2:	39 c6                	cmp    %eax,%esi
 804bcd4:	76 09                	jbe    804bcdf 
 804bcd6:	8b 44 24 08          	mov    0x8(%esp),%eax
 804bcda:	c6 44 38 01 27       	movb   $0x27,0x1(%eax,%edi,1)
 804bcdf:	83 c7 02             	add    $0x2,%edi
 804bce2:	c6 44 24 10 00       	movb   $0x0,0x10(%esp)
 804bce7:	39 f7                	cmp    %esi,%edi
 804bce9:	73 07                	jae    804bcf2 
 804bceb:	8b 44 24 08          	mov    0x8(%esp),%eax
 804bcef:	88 14 38             	mov    %dl,(%eax,%edi,1)
 804bcf2:	83 c7 01             	add    $0x1,%edi
 804bcf5:	e9 46 fe ff ff       	jmp    804bb40 
 804bcfa:	8d b6 00 00 00 00    	lea    0x0(%esi),%esi
 804bd00:	85 ed                	test   %ebp,%ebp
 804bd02:	0f 85 68 ff ff ff    	jne    804bc70 
 804bd08:	83 bc 24 84 00 00 00 	cmpl   $0x2,0x84(%esp)
 804bd0f:	02 
 804bd10:	0f b6 4c 24 1e       	movzbl 0x1e(%esp),%ecx
 804bd15:	0f 94 c2             	sete   %dl
 804bd18:	20 d1                	and    %dl,%cl
 804bd1a:	0f 84 5b ff ff ff    	je     804bc7b 
 804bd20:	80 7c 24 1d 00       	cmpb   $0x0,0x1d(%esp)
 804bd25:	74 0f                	je     804bd36 
 804bd27:	84 c9                	test   %cl,%cl
 804bd29:	74 0b                	je     804bd36 
 804bd2b:	c7 84 24 84 00 00 00 	movl   $0x4,0x84(%esp)
 804bd32:	04 00 00 00 
 804bd36:	83 ec 08             	sub    $0x8,%esp
 804bd39:	89 f2                	mov    %esi,%edx
 804bd3b:	ff 74 24 44          	pushl  0x44(%esp)
 804bd3f:	ff 74 24 4c          	pushl  0x4c(%esp)
 804bd43:	6a 00                	push   $0x0
 804bd45:	8b 84 24 9c 00 00 00 	mov    0x9c(%esp),%eax
 804bd4c:	83 e0 fd             	and    $0xfffffffd,%eax
 804bd4f:	50                   	push   %eax
 804bd50:	ff b4 24 9c 00 00 00 	pushl  0x9c(%esp)
 804bd57:	ff b4 24 9c 00 00 00 	pushl  0x9c(%esp)
 804bd5e:	8b 4c 24 2c          	mov    0x2c(%esp),%ecx
 804bd62:	8b 44 24 28          	mov    0x28(%esp),%eax
 804bd66:	e8 05 fd ff ff       	call   804ba70 
 804bd6b:	83 c4 20             	add    $0x20,%esp
 804bd6e:	8b 74 24 5c          	mov    0x5c(%esp),%esi
 804bd72:	65 33 35 14 00 00 00 	xor    %gs:0x14,%esi
 804bd79:	0f 85 46 0a 00 00    	jne    804c7c5 
 804bd7f:	83 c4 6c             	add    $0x6c,%esp
 804bd82:	5b                   	pop    %ebx
 804bd83:	5e                   	pop    %esi
 804bd84:	5f                   	pop    %edi
 804bd85:	5d                   	pop    %ebp
 804bd86:	c3                   	ret    
 804bd87:	89 f6                	mov    %esi,%esi
 804bd89:	8d bc 27 00 00 00 00 	lea    0x0(%edi,%eiz,1),%edi
 804bd90:	ba 72 00 00 00       	mov    $0x72,%edx
 804bd95:	83 bc 24 84 00 00 00 	cmpl   $0x2,0x84(%esp)
 804bd9c:	02 
 804bd9d:	0f 94 c0             	sete   %al
 804bda0:	22 44 24 1e          	and    0x1e(%esp),%al
 804bda4:	89 c1                	mov    %eax,%ecx
 804bda6:	0f 85 74 ff ff ff    	jne    804bd20 
 804bdac:	80 7c 24 1d 00       	cmpb   $0x0,0x1d(%esp)
 804bdb1:	75 25                	jne    804bdd8 
 804bdb3:	80 7c 24 1e 00       	cmpb   $0x0,0x1e(%esp)
 804bdb8:	0f 84 b2 02 00 00    	je     804c070 
 804bdbe:	31 c0                	xor    %eax,%eax
 804bdc0:	e9 c2 fe ff ff       	jmp    804bc87 
 804bdc5:	8d 76 00             	lea    0x0(%esi),%esi
 804bdc8:	80 7c 24 1d 00       	cmpb   $0x0,0x1d(%esp)
 804bdcd:	ba 62 00 00 00       	mov    $0x62,%edx
 804bdd2:	74 df                	je     804bdb3 
 804bdd4:	8d 74 26 00          	lea    0x0(%esi,%eiz,1),%esi
 804bdd8:	80 7c 24 1e 00       	cmpb   $0x0,0x1e(%esp)
 804bddd:	0f 84 a5 02 00 00    	je     804c088 
 804bde3:	83 bc 24 84 00 00 00 	cmpl   $0x2,0x84(%esp)
 804bdea:	02 
 804bdeb:	0f 94 c0             	sete   %al
 804bdee:	89 c1                	mov    %eax,%ecx
 804bdf0:	e9 2b ff ff ff       	jmp    804bd20 
 804bdf5:	8d 76 00             	lea    0x0(%esi),%esi
 804bdf8:	ba 66 00 00 00       	mov    $0x66,%edx
 804bdfd:	eb ad                	jmp    804bdac 
 804bdff:	90                   	nop
 804be00:	ba 76 00 00 00       	mov    $0x76,%edx
 804be05:	eb a5                	jmp    804bdac 
 804be07:	89 f6                	mov    %esi,%esi
 804be09:	8d bc 27 00 00 00 00 	lea    0x0(%edi,%eiz,1),%edi
 804be10:	80 7c 24 1d 00       	cmpb   $0x0,0x1d(%esp)
 804be15:	0f 84 f5 07 00 00    	je     804c610 
 804be1b:	80 7c 24 1e 00       	cmpb   $0x0,0x1e(%esp)
 804be20:	75 c1                	jne    804bde3 
 804be22:	83 bc 24 84 00 00 00 	cmpl   $0x2,0x84(%esp)
 804be29:	02 
 804be2a:	89 f8                	mov    %edi,%eax
 804be2c:	0f 94 c2             	sete   %dl
 804be2f:	38 54 24 10          	cmp    %dl,0x10(%esp)
 804be33:	73 34                	jae    804be69 
 804be35:	39 f7                	cmp    %esi,%edi
 804be37:	73 08                	jae    804be41 
 804be39:	8b 44 24 08          	mov    0x8(%esp),%eax
 804be3d:	c6 04 38 27          	movb   $0x27,(%eax,%edi,1)
 804be41:	8d 47 01             	lea    0x1(%edi),%eax
 804be44:	39 c6                	cmp    %eax,%esi
 804be46:	76 09                	jbe    804be51 
 804be48:	8b 44 24 08          	mov    0x8(%esp),%eax
 804be4c:	c6 44 38 01 24       	movb   $0x24,0x1(%eax,%edi,1)
 804be51:	8d 47 02             	lea    0x2(%edi),%eax
 804be54:	39 c6                	cmp    %eax,%esi
 804be56:	76 09                	jbe    804be61 
 804be58:	8b 44 24 08          	mov    0x8(%esp),%eax
 804be5c:	c6 44 38 02 27       	movb   $0x27,0x2(%eax,%edi,1)
 804be61:	8d 47 03             	lea    0x3(%edi),%eax
 804be64:	c6 44 24 10 01       	movb   $0x1,0x10(%esp)
 804be69:	39 f0                	cmp    %esi,%eax
 804be6b:	73 08                	jae    804be75 
 804be6d:	8b 4c 24 08          	mov    0x8(%esp),%ecx
 804be71:	c6 04 01 5c          	movb   $0x5c,(%ecx,%eax,1)
 804be75:	83 bc 24 84 00 00 00 	cmpl   $0x2,0x84(%esp)
 804be7c:	02 
 804be7d:	8d 78 01             	lea    0x1(%eax),%edi
 804be80:	0f 84 aa 07 00 00    	je     804c630 
 804be86:	8d 4d 01             	lea    0x1(%ebp),%ecx
 804be89:	39 8c 24 80 00 00 00 	cmp    %ecx,0x80(%esp)
 804be90:	0f 86 9a 07 00 00    	jbe    804c630 
 804be96:	8b 4c 24 0c          	mov    0xc(%esp),%ecx
 804be9a:	0f b6 5c 29 01       	movzbl 0x1(%ecx,%ebp,1),%ebx
 804be9f:	89 d9                	mov    %ebx,%ecx
 804bea1:	88 5c 24 1c          	mov    %bl,0x1c(%esp)
 804bea5:	83 e9 30             	sub    $0x30,%ecx
 804bea8:	80 f9 09             	cmp    $0x9,%cl
 804beab:	0f 87 7f 07 00 00    	ja     804c630 
 804beb1:	39 fe                	cmp    %edi,%esi
 804beb3:	0f 87 67 08 00 00    	ja     804c720 
 804beb9:	8d 48 02             	lea    0x2(%eax),%ecx
 804bebc:	39 ce                	cmp    %ecx,%esi
 804bebe:	76 09                	jbe    804bec9 
 804bec0:	8b 4c 24 08          	mov    0x8(%esp),%ecx
 804bec4:	c6 44 01 02 30       	movb   $0x30,0x2(%ecx,%eax,1)
 804bec9:	8d 78 03             	lea    0x3(%eax),%edi
 804becc:	c6 44 24 04 30       	movb   $0x30,0x4(%esp)
 804bed1:	b8 01 00 00 00       	mov    $0x1,%eax
 804bed6:	e9 5f 07 00 00       	jmp    804c63a 
 804bedb:	90                   	nop
 804bedc:	8d 74 26 00          	lea    0x0(%esi,%eiz,1),%esi
 804bee0:	ba 6e 00 00 00       	mov    $0x6e,%edx
 804bee5:	e9 ab fe ff ff       	jmp    804bd95 
 804beea:	8d b6 00 00 00 00    	lea    0x0(%esi),%esi
 804bef0:	ba 61 00 00 00       	mov    $0x61,%edx
 804bef5:	e9 b2 fe ff ff       	jmp    804bdac 
 804befa:	8d b6 00 00 00 00    	lea    0x0(%esi),%esi
 804bf00:	ba 74 00 00 00       	mov    $0x74,%edx
 804bf05:	e9 8b fe ff ff       	jmp    804bd95 
 804bf0a:	8d b6 00 00 00 00    	lea    0x0(%esi),%esi
 804bf10:	83 bc 24 84 00 00 00 	cmpl   $0x2,0x84(%esp)
 804bf17:	02 
 804bf18:	0f 84 62 07 00 00    	je     804c680 
 804bf1e:	0f b6 5c 24 1e       	movzbl 0x1e(%esp),%ebx
 804bf23:	84 5c 24 1d          	test   %bl,0x1d(%esp)
 804bf27:	0f 84 23 07 00 00    	je     804c650 
 804bf2d:	80 7c 24 1c 00       	cmpb   $0x0,0x1c(%esp)
 804bf32:	0f 84 18 07 00 00    	je     804c650 
 804bf38:	83 c5 01             	add    $0x1,%ebp
 804bf3b:	0f b6 54 24 04       	movzbl 0x4(%esp),%edx
 804bf40:	31 c0                	xor    %eax,%eax
 804bf42:	e9 76 fd ff ff       	jmp    804bcbd 
 804bf47:	89 f6                	mov    %esi,%esi
 804bf49:	8d bc 27 00 00 00 00 	lea    0x0(%edi,%eiz,1),%edi
 804bf50:	83 bc 24 84 00 00 00 	cmpl   $0x2,0x84(%esp)
 804bf57:	02 
 804bf58:	0f 84 02 07 00 00    	je     804c660 
 804bf5e:	83 bc 24 84 00 00 00 	cmpl   $0x5,0x84(%esp)
 804bf65:	05 
 804bf66:	0f 85 04 fd ff ff    	jne    804bc70 
 804bf6c:	f6 84 24 88 00 00 00 	testb  $0x4,0x88(%esp)
 804bf73:	04 
 804bf74:	0f 84 46 07 00 00    	je     804c6c0 
 804bf7a:	8d 5d 02             	lea    0x2(%ebp),%ebx
 804bf7d:	31 d2                	xor    %edx,%edx
 804bf7f:	39 9c 24 80 00 00 00 	cmp    %ebx,0x80(%esp)
 804bf86:	0f 86 ef fc ff ff    	jbe    804bc7b 
 804bf8c:	8b 44 24 0c          	mov    0xc(%esp),%eax
 804bf90:	80 7c 28 01 3f       	cmpb   $0x3f,0x1(%eax,%ebp,1)
 804bf95:	0f 85 e0 fc ff ff    	jne    804bc7b 
 804bf9b:	0f b6 04 18          	movzbl (%eax,%ebx,1),%eax
 804bf9f:	8d 48 df             	lea    -0x21(%eax),%ecx
 804bfa2:	88 44 24 1c          	mov    %al,0x1c(%esp)
 804bfa6:	80 f9 1d             	cmp    $0x1d,%cl
 804bfa9:	0f 87 cc fc ff ff    	ja     804bc7b 
 804bfaf:	b8 01 00 00 00       	mov    $0x1,%eax
 804bfb4:	d3 e0                	shl    %cl,%eax
 804bfb6:	a9 c1 51 00 38       	test   $0x380051c1,%eax
 804bfbb:	0f 84 ba fc ff ff    	je     804bc7b 
 804bfc1:	80 7c 24 1e 00       	cmpb   $0x0,0x1e(%esp)
 804bfc6:	0f 85 6a fd ff ff    	jne    804bd36 
 804bfcc:	39 f7                	cmp    %esi,%edi
 804bfce:	73 08                	jae    804bfd8 
 804bfd0:	8b 44 24 08          	mov    0x8(%esp),%eax
 804bfd4:	c6 04 38 3f          	movb   $0x3f,(%eax,%edi,1)
 804bfd8:	8d 47 01             	lea    0x1(%edi),%eax
 804bfdb:	39 c6                	cmp    %eax,%esi
 804bfdd:	76 09                	jbe    804bfe8 
 804bfdf:	8b 44 24 08          	mov    0x8(%esp),%eax
 804bfe3:	c6 44 38 01 22       	movb   $0x22,0x1(%eax,%edi,1)
 804bfe8:	8d 47 02             	lea    0x2(%edi),%eax
 804bfeb:	39 c6                	cmp    %eax,%esi
 804bfed:	76 09                	jbe    804bff8 
 804bfef:	8b 44 24 08          	mov    0x8(%esp),%eax
 804bff3:	c6 44 38 02 22       	movb   $0x22,0x2(%eax,%edi,1)
 804bff8:	8d 47 03             	lea    0x3(%edi),%eax
 804bffb:	39 c6                	cmp    %eax,%esi
 804bffd:	76 09                	jbe    804c008 
 804bfff:	8b 44 24 08          	mov    0x8(%esp),%eax
 804c003:	c6 44 38 03 3f       	movb   $0x3f,0x3(%eax,%edi,1)
 804c008:	0f b6 44 24 1c       	movzbl 0x1c(%esp),%eax
 804c00d:	83 c7 04             	add    $0x4,%edi
 804c010:	89 dd                	mov    %ebx,%ebp
 804c012:	31 d2                	xor    %edx,%edx
 804c014:	88 44 24 04          	mov    %al,0x4(%esp)
 804c018:	31 c0                	xor    %eax,%eax
 804c01a:	e9 1b 06 00 00       	jmp    804c63a 
 804c01f:	90                   	nop
 804c020:	31 d2                	xor    %edx,%edx
 804c022:	83 bc 24 84 00 00 00 	cmpl   $0x2,0x84(%esp)
 804c029:	02 
 804c02a:	0f 85 4b fc ff ff    	jne    804bc7b 
 804c030:	80 7c 24 1e 00       	cmpb   $0x0,0x1e(%esp)
 804c035:	0f 85 e5 fc ff ff    	jne    804bd20 
 804c03b:	39 f7                	cmp    %esi,%edi
 804c03d:	73 08                	jae    804c047 
 804c03f:	8b 44 24 08          	mov    0x8(%esp),%eax
 804c043:	c6 04 38 27          	movb   $0x27,(%eax,%edi,1)
 804c047:	8d 47 01             	lea    0x1(%edi),%eax
 804c04a:	39 c6                	cmp    %eax,%esi
 804c04c:	76 09                	jbe    804c057 
 804c04e:	8b 44 24 08          	mov    0x8(%esp),%eax
 804c052:	c6 44 38 01 5c       	movb   $0x5c,0x1(%eax,%edi,1)
 804c057:	8d 47 02             	lea    0x2(%edi),%eax
 804c05a:	39 c6                	cmp    %eax,%esi
 804c05c:	76 09                	jbe    804c067 
 804c05e:	8b 44 24 08          	mov    0x8(%esp),%eax
 804c062:	c6 44 38 02 27       	movb   $0x27,0x2(%eax,%edi,1)
 804c067:	83 c7 03             	add    $0x3,%edi
 804c06a:	c6 44 24 10 00       	movb   $0x0,0x10(%esp)
 804c06f:	90                   	nop
 804c070:	31 c0                	xor    %eax,%eax
 804c072:	80 7c 24 1f 00       	cmpb   $0x0,0x1f(%esp)
 804c077:	0f 84 38 fc ff ff    	je     804bcb5 
 804c07d:	0f b6 54 24 04       	movzbl 0x4(%esp),%edx
 804c082:	8d b6 00 00 00 00    	lea    0x0(%esi),%esi
 804c088:	83 bc 24 84 00 00 00 	cmpl   $0x2,0x84(%esp)
 804c08f:	02 
 804c090:	0f 94 c0             	sete   %al
 804c093:	3a 44 24 10          	cmp    0x10(%esp),%al
 804c097:	76 34                	jbe    804c0cd 
 804c099:	39 fe                	cmp    %edi,%esi
 804c09b:	76 08                	jbe    804c0a5 
 804c09d:	8b 44 24 08          	mov    0x8(%esp),%eax
 804c0a1:	c6 04 38 27          	movb   $0x27,(%eax,%edi,1)
 804c0a5:	8d 47 01             	lea    0x1(%edi),%eax
 804c0a8:	39 c6                	cmp    %eax,%esi
 804c0aa:	76 09                	jbe    804c0b5 
 804c0ac:	8b 44 24 08          	mov    0x8(%esp),%eax
 804c0b0:	c6 44 38 01 24       	movb   $0x24,0x1(%eax,%edi,1)
 804c0b5:	8d 47 02             	lea    0x2(%edi),%eax
 804c0b8:	39 c6                	cmp    %eax,%esi
 804c0ba:	76 09                	jbe    804c0c5 
 804c0bc:	8b 44 24 08          	mov    0x8(%esp),%eax
 804c0c0:	c6 44 38 02 27       	movb   $0x27,0x2(%eax,%edi,1)
 804c0c5:	83 c7 03             	add    $0x3,%edi
 804c0c8:	c6 44 24 10 01       	movb   $0x1,0x10(%esp)
 804c0cd:	39 f7                	cmp    %esi,%edi
 804c0cf:	73 08                	jae    804c0d9 
 804c0d1:	8b 44 24 08          	mov    0x8(%esp),%eax
 804c0d5:	c6 04 38 5c          	movb   $0x5c,(%eax,%edi,1)
 804c0d9:	83 c7 01             	add    $0x1,%edi
 804c0dc:	83 c5 01             	add    $0x1,%ebp
 804c0df:	e9 03 fc ff ff       	jmp    804bce7 
 804c0e4:	8d 74 26 00          	lea    0x0(%esi,%eiz,1),%esi
 804c0e8:	83 7c 24 44 01       	cmpl   $0x1,0x44(%esp)
 804c0ed:	0f 85 dd 03 00 00    	jne    804c4d0 
 804c0f3:	8b 5c 24 14          	mov    0x14(%esp),%ebx
 804c0f7:	e8 e4 d2 ff ff       	call   80493e0 
 804c0fc:	0f b6 54 24 04       	movzbl 0x4(%esp),%edx
 804c101:	8b 08                	mov    (%eax),%ecx
 804c103:	c7 44 24 2c 01 00 00 	movl   $0x1,0x2c(%esp)
 804c10a:	00 
 804c10b:	0f b7 04 51          	movzwl (%ecx,%edx,2),%eax
 804c10f:	66 c1 e8 0e          	shr    $0xe,%ax
 804c113:	83 e0 01             	and    $0x1,%eax
 804c116:	88 44 24 1c          	mov    %al,0x1c(%esp)
 804c11a:	0f b6 5c 24 1c       	movzbl 0x1c(%esp),%ebx
 804c11f:	38 5c 24 1d          	cmp    %bl,0x1d(%esp)
 804c123:	0f 86 47 fb ff ff    	jbe    804bc70 
 804c129:	8b 54 24 2c          	mov    0x2c(%esp),%edx
 804c12d:	31 c0                	xor    %eax,%eax
 804c12f:	0f b6 5c 24 10       	movzbl 0x10(%esp),%ebx
 804c134:	88 44 24 18          	mov    %al,0x18(%esp)
 804c138:	8b 4c 24 08          	mov    0x8(%esp),%ecx
 804c13c:	01 ea                	add    %ebp,%edx
 804c13e:	89 54 24 10          	mov    %edx,0x10(%esp)
 804c142:	0f b6 54 24 04       	movzbl 0x4(%esp),%edx
 804c147:	e9 a4 00 00 00       	jmp    804c1f0 
 804c14c:	8d 74 26 00          	lea    0x0(%esi,%eiz,1),%esi
 804c150:	83 bc 24 84 00 00 00 	cmpl   $0x2,0x84(%esp)
 804c157:	02 
 804c158:	0f 94 c0             	sete   %al
 804c15b:	80 7c 24 1e 00       	cmpb   $0x0,0x1e(%esp)
 804c160:	0f 85 88 fc ff ff    	jne    804bdee 
 804c166:	38 c3                	cmp    %al,%bl
 804c168:	73 28                	jae    804c192 
 804c16a:	39 f7                	cmp    %esi,%edi
 804c16c:	73 04                	jae    804c172 
 804c16e:	c6 04 39 27          	movb   $0x27,(%ecx,%edi,1)
 804c172:	8d 47 01             	lea    0x1(%edi),%eax
 804c175:	39 c6                	cmp    %eax,%esi
 804c177:	76 05                	jbe    804c17e 
 804c179:	c6 44 39 01 24       	movb   $0x24,0x1(%ecx,%edi,1)
 804c17e:	8d 47 02             	lea    0x2(%edi),%eax
 804c181:	39 c6                	cmp    %eax,%esi
 804c183:	76 05                	jbe    804c18a 
 804c185:	c6 44 39 02 27       	movb   $0x27,0x2(%ecx,%edi,1)
 804c18a:	83 c7 03             	add    $0x3,%edi
 804c18d:	bb 01 00 00 00       	mov    $0x1,%ebx
 804c192:	39 f7                	cmp    %esi,%edi
 804c194:	73 04                	jae    804c19a 
 804c196:	c6 04 39 5c          	movb   $0x5c,(%ecx,%edi,1)
 804c19a:	8d 47 01             	lea    0x1(%edi),%eax
 804c19d:	39 c6                	cmp    %eax,%esi
 804c19f:	76 0c                	jbe    804c1ad 
 804c1a1:	89 d0                	mov    %edx,%eax
 804c1a3:	c0 e8 06             	shr    $0x6,%al
 804c1a6:	83 c0 30             	add    $0x30,%eax
 804c1a9:	88 44 39 01          	mov    %al,0x1(%ecx,%edi,1)
 804c1ad:	8d 47 02             	lea    0x2(%edi),%eax
 804c1b0:	39 c6                	cmp    %eax,%esi
 804c1b2:	76 0f                	jbe    804c1c3 
 804c1b4:	89 d0                	mov    %edx,%eax
 804c1b6:	c0 e8 03             	shr    $0x3,%al
 804c1b9:	83 e0 07             	and    $0x7,%eax
 804c1bc:	83 c0 30             	add    $0x30,%eax
 804c1bf:	88 44 39 02          	mov    %al,0x2(%ecx,%edi,1)
 804c1c3:	83 e2 07             	and    $0x7,%edx
 804c1c6:	83 c7 03             	add    $0x3,%edi
 804c1c9:	83 c5 01             	add    $0x1,%ebp
 804c1cc:	83 c2 30             	add    $0x30,%edx
 804c1cf:	39 6c 24 10          	cmp    %ebp,0x10(%esp)
 804c1d3:	0f 86 cf 04 00 00    	jbe    804c6a8 
 804c1d9:	c6 44 24 18 01       	movb   $0x1,0x18(%esp)
 804c1de:	39 f7                	cmp    %esi,%edi
 804c1e0:	73 03                	jae    804c1e5 
 804c1e2:	88 14 39             	mov    %dl,(%ecx,%edi,1)
 804c1e5:	8b 44 24 0c          	mov    0xc(%esp),%eax
 804c1e9:	83 c7 01             	add    $0x1,%edi
 804c1ec:	0f b6 14 28          	movzbl (%eax,%ebp,1),%edx
 804c1f0:	0f b6 44 24 1c       	movzbl 0x1c(%esp),%eax
 804c1f5:	38 44 24 1d          	cmp    %al,0x1d(%esp)
 804c1f9:	0f 87 51 ff ff ff    	ja     804c150 
 804c1ff:	80 7c 24 1f 00       	cmpb   $0x0,0x1f(%esp)
 804c204:	74 0b                	je     804c211 
 804c206:	39 f7                	cmp    %esi,%edi
 804c208:	73 04                	jae    804c20e 
 804c20a:	c6 04 39 5c          	movb   $0x5c,(%ecx,%edi,1)
 804c20e:	83 c7 01             	add    $0x1,%edi
 804c211:	83 c5 01             	add    $0x1,%ebp
 804c214:	39 6c 24 10          	cmp    %ebp,0x10(%esp)
 804c218:	0f 86 72 04 00 00    	jbe    804c690 
 804c21e:	3a 5c 24 18          	cmp    0x18(%esp),%bl
 804c222:	0f 86 c7 04 00 00    	jbe    804c6ef 
 804c228:	39 f7                	cmp    %esi,%edi
 804c22a:	73 04                	jae    804c230 
 804c22c:	c6 04 39 27          	movb   $0x27,(%ecx,%edi,1)
 804c230:	8d 5f 01             	lea    0x1(%edi),%ebx
 804c233:	39 de                	cmp    %ebx,%esi
 804c235:	76 05                	jbe    804c23c 
 804c237:	c6 44 39 01 27       	movb   $0x27,0x1(%ecx,%edi,1)
 804c23c:	83 c7 02             	add    $0x2,%edi
 804c23f:	c6 44 24 1f 00       	movb   $0x0,0x1f(%esp)
 804c244:	31 db                	xor    %ebx,%ebx
 804c246:	eb 96                	jmp    804c1de 
 804c248:	c6 44 24 1e 00       	movb   $0x0,0x1e(%esp)
 804c24d:	c6 44 24 1d 00       	movb   $0x0,0x1d(%esp)
 804c252:	31 ff                	xor    %edi,%edi
 804c254:	c7 44 24 20 00 00 00 	movl   $0x0,0x20(%esp)
 804c25b:	00 
 804c25c:	c7 44 24 30 00 00 00 	movl   $0x0,0x30(%esp)
 804c263:	00 
 804c264:	e9 bf f8 ff ff       	jmp    804bb28 
 804c269:	83 bc 24 84 00 00 00 	cmpl   $0xa,0x84(%esp)
 804c270:	0a 
 804c271:	74 50                	je     804c2c3 
 804c273:	83 ec 04             	sub    $0x4,%esp
 804c276:	6a 05                	push   $0x5
 804c278:	8b 44 24 1c          	mov    0x1c(%esp),%eax
 804c27c:	8d b8 23 b5 ff ff    	lea    -0x4add(%eax),%edi
 804c282:	89 c3                	mov    %eax,%ebx
 804c284:	57                   	push   %edi
 804c285:	6a 00                	push   $0x0
 804c287:	e8 f4 cd ff ff       	call   8049080 
 804c28c:	89 44 24 50          	mov    %eax,0x50(%esp)
 804c290:	83 c4 10             	add    $0x10,%esp
 804c293:	39 f8                	cmp    %edi,%eax
 804c295:	0f 84 92 04 00 00    	je     804c72d 
 804c29b:	83 ec 04             	sub    $0x4,%esp
 804c29e:	6a 05                	push   $0x5
 804c2a0:	8b 44 24 1c          	mov    0x1c(%esp),%eax
 804c2a4:	8d b8 21 b5 ff ff    	lea    -0x4adf(%eax),%edi
 804c2aa:	89 c3                	mov    %eax,%ebx
 804c2ac:	57                   	push   %edi
 804c2ad:	6a 00                	push   $0x0
 804c2af:	e8 cc cd ff ff       	call   8049080 
 804c2b4:	89 44 24 4c          	mov    %eax,0x4c(%esp)
 804c2b8:	83 c4 10             	add    $0x10,%esp
 804c2bb:	39 f8                	cmp    %edi,%eax
 804c2bd:	0f 84 83 04 00 00    	je     804c746 
 804c2c3:	31 ff                	xor    %edi,%edi
 804c2c5:	85 ed                	test   %ebp,%ebp
 804c2c7:	75 29                	jne    804c2f2 
 804c2c9:	8b 54 24 40          	mov    0x40(%esp),%edx
 804c2cd:	89 ef                	mov    %ebp,%edi
 804c2cf:	0f b6 02             	movzbl (%edx),%eax
 804c2d2:	84 c0                	test   %al,%al
 804c2d4:	74 1c                	je     804c2f2 
 804c2d6:	8b 4c 24 08          	mov    0x8(%esp),%ecx
 804c2da:	8d b6 00 00 00 00    	lea    0x0(%esi),%esi
 804c2e0:	39 fe                	cmp    %edi,%esi
 804c2e2:	76 03                	jbe    804c2e7 
 804c2e4:	88 04 39             	mov    %al,(%ecx,%edi,1)
 804c2e7:	83 c7 01             	add    $0x1,%edi
 804c2ea:	0f b6 04 3a          	movzbl (%edx,%edi,1),%eax
 804c2ee:	84 c0                	test   %al,%al
 804c2f0:	75 ee                	jne    804c2e0 
 804c2f2:	85 ed                	test   %ebp,%ebp
 804c2f4:	0f 95 44 24 1e       	setne  0x1e(%esp)
 804c2f9:	83 ec 0c             	sub    $0xc,%esp
 804c2fc:	8b 6c 24 48          	mov    0x48(%esp),%ebp
 804c300:	55                   	push   %ebp
 804c301:	8b 5c 24 24          	mov    0x24(%esp),%ebx
 804c305:	e8 46 cf ff ff       	call   8049250 
 804c30a:	83 c4 10             	add    $0x10,%esp
 804c30d:	89 44 24 20          	mov    %eax,0x20(%esp)
 804c311:	89 6c 24 30          	mov    %ebp,0x30(%esp)
 804c315:	c6 44 24 1d 01       	movb   $0x1,0x1d(%esp)
 804c31a:	e9 09 f8 ff ff       	jmp    804bb28 
 804c31f:	8b 44 24 14          	mov    0x14(%esp),%eax
 804c323:	c6 44 24 1e 01       	movb   $0x1,0x1e(%esp)
 804c328:	31 ff                	xor    %edi,%edi
 804c32a:	c6 44 24 1d 01       	movb   $0x1,0x1d(%esp)
 804c32f:	c7 44 24 20 01 00 00 	movl   $0x1,0x20(%esp)
 804c336:	00 
 804c337:	c7 84 24 84 00 00 00 	movl   $0x5,0x84(%esp)
 804c33e:	05 00 00 00 
 804c342:	8d 80 1f b5 ff ff    	lea    -0x4ae1(%eax),%eax
 804c348:	89 44 24 30          	mov    %eax,0x30(%esp)
 804c34c:	e9 d7 f7 ff ff       	jmp    804bb28 
 804c351:	c6 44 24 1e 00       	movb   $0x0,0x1e(%esp)
 804c356:	c6 44 24 1d 01       	movb   $0x1,0x1d(%esp)
 804c35b:	31 ff                	xor    %edi,%edi
 804c35d:	c7 44 24 20 00 00 00 	movl   $0x0,0x20(%esp)
 804c364:	00 
 804c365:	c7 44 24 30 00 00 00 	movl   $0x0,0x30(%esp)
 804c36c:	00 
 804c36d:	e9 b6 f7 ff ff       	jmp    804bb28 
 804c372:	c6 44 24 1d 01       	movb   $0x1,0x1d(%esp)
 804c377:	e9 7d f7 ff ff       	jmp    804baf9 
 804c37c:	85 ed                	test   %ebp,%ebp
 804c37e:	0f 85 46 04 00 00    	jne    804c7ca 
 804c384:	85 f6                	test   %esi,%esi
 804c386:	74 07                	je     804c38f 
 804c388:	8b 44 24 08          	mov    0x8(%esp),%eax
 804c38c:	c6 00 22             	movb   $0x22,(%eax)
 804c38f:	8b 44 24 14          	mov    0x14(%esp),%eax
 804c393:	c6 44 24 1e 00       	movb   $0x0,0x1e(%esp)
 804c398:	bf 01 00 00 00       	mov    $0x1,%edi
 804c39d:	c6 44 24 1d 01       	movb   $0x1,0x1d(%esp)
 804c3a2:	c7 44 24 20 01 00 00 	movl   $0x1,0x20(%esp)
 804c3a9:	00 
 804c3aa:	8d 80 1f b5 ff ff    	lea    -0x4ae1(%eax),%eax
 804c3b0:	89 44 24 30          	mov    %eax,0x30(%esp)
 804c3b4:	e9 6f f7 ff ff       	jmp    804bb28 
 804c3b9:	85 ed                	test   %ebp,%ebp
 804c3bb:	0f 85 33 f7 ff ff    	jne    804baf4 
 804c3c1:	c6 44 24 1d 01       	movb   $0x1,0x1d(%esp)
 804c3c6:	85 f6                	test   %esi,%esi
 804c3c8:	74 07                	je     804c3d1 
 804c3ca:	8b 44 24 08          	mov    0x8(%esp),%eax
 804c3ce:	c6 00 27             	movb   $0x27,(%eax)
 804c3d1:	8b 44 24 14          	mov    0x14(%esp),%eax
 804c3d5:	c6 44 24 1e 00       	movb   $0x0,0x1e(%esp)
 804c3da:	bf 01 00 00 00       	mov    $0x1,%edi
 804c3df:	c7 44 24 20 01 00 00 	movl   $0x1,0x20(%esp)
 804c3e6:	00 
 804c3e7:	c7 84 24 84 00 00 00 	movl   $0x2,0x84(%esp)
 804c3ee:	02 00 00 00 
 804c3f2:	8d 80 21 b5 ff ff    	lea    -0x4adf(%eax),%eax
 804c3f8:	89 44 24 30          	mov    %eax,0x30(%esp)
 804c3fc:	e9 27 f7 ff ff       	jmp    804bb28 
 804c401:	85 ed                	test   %ebp,%ebp
 804c403:	0f 85 f0 02 00 00    	jne    804c6f9 
 804c409:	c6 44 24 1d 00       	movb   $0x0,0x1d(%esp)
 804c40e:	eb b6                	jmp    804c3c6 
 804c410:	8b 44 24 0c          	mov    0xc(%esp),%eax
 804c414:	c6 44 24 1f 00       	movb   $0x0,0x1f(%esp)
 804c419:	01 e8                	add    %ebp,%eax
 804c41b:	89 44 24 18          	mov    %eax,0x18(%esp)
 804c41f:	e9 fc f7 ff ff       	jmp    804bc20 
 804c424:	8d 74 26 00          	lea    0x0(%esi,%eiz,1),%esi
 804c428:	80 7c 24 1e 00       	cmpb   $0x0,0x1e(%esp)
 804c42d:	0f b6 54 24 04       	movzbl 0x4(%esp),%edx
 804c432:	0f 84 50 fc ff ff    	je     804c088 
 804c438:	e9 a6 f9 ff ff       	jmp    804bde3 
 804c43d:	8d 76 00             	lea    0x0(%esi),%esi
 804c440:	8b 44 24 0c          	mov    0xc(%esp),%eax
 804c444:	80 3c 28 00          	cmpb   $0x0,(%eax,%ebp,1)
 804c448:	0f 95 c1             	setne  %cl
 804c44b:	84 c9                	test   %cl,%cl
 804c44d:	0f 85 0d f7 ff ff    	jne    804bb60 
 804c453:	83 bc 24 84 00 00 00 	cmpl   $0x2,0x84(%esp)
 804c45a:	02 
 804c45b:	0f 94 c0             	sete   %al
 804c45e:	85 ff                	test   %edi,%edi
 804c460:	89 c1                	mov    %eax,%ecx
 804c462:	75 0a                	jne    804c46e 
 804c464:	84 44 24 1e          	test   %al,0x1e(%esp)
 804c468:	0f 85 b2 f8 ff ff    	jne    804bd20 
 804c46e:	8b 4c 24 30          	mov    0x30(%esp),%ecx
 804c472:	85 c9                	test   %ecx,%ecx
 804c474:	0f 95 c0             	setne  %al
 804c477:	38 44 24 1e          	cmp    %al,0x1e(%esp)
 804c47b:	73 27                	jae    804c4a4 
 804c47d:	0f b6 11             	movzbl (%ecx),%edx
 804c480:	84 d2                	test   %dl,%dl
 804c482:	74 20                	je     804c4a4 
 804c484:	8b 5c 24 08          	mov    0x8(%esp),%ebx
 804c488:	89 f8                	mov    %edi,%eax
 804c48a:	29 f9                	sub    %edi,%ecx
 804c48c:	8d 74 26 00          	lea    0x0(%esi,%eiz,1),%esi
 804c490:	39 c6                	cmp    %eax,%esi
 804c492:	76 03                	jbe    804c497 
 804c494:	88 14 03             	mov    %dl,(%ebx,%eax,1)
 804c497:	83 c0 01             	add    $0x1,%eax
 804c49a:	0f b6 14 01          	movzbl (%ecx,%eax,1),%edx
 804c49e:	84 d2                	test   %dl,%dl
 804c4a0:	75 ee                	jne    804c490 
 804c4a2:	89 c7                	mov    %eax,%edi
 804c4a4:	39 f7                	cmp    %esi,%edi
 804c4a6:	89 f8                	mov    %edi,%eax
 804c4a8:	0f 83 c0 f8 ff ff    	jae    804bd6e 
 804c4ae:	8b 74 24 08          	mov    0x8(%esp),%esi
 804c4b2:	c6 04 3e 00          	movb   $0x0,(%esi,%edi,1)
 804c4b6:	e9 b3 f8 ff ff       	jmp    804bd6e 
 804c4bb:	90                   	nop
 804c4bc:	8d 74 26 00          	lea    0x0(%esi,%eiz,1),%esi
 804c4c0:	c6 44 24 1f 00       	movb   $0x0,0x1f(%esp)
 804c4c5:	e9 56 f7 ff ff       	jmp    804bc20 
 804c4ca:	8d b6 00 00 00 00    	lea    0x0(%esi),%esi
 804c4d0:	83 bc 24 80 00 00 00 	cmpl   $0xffffffff,0x80(%esp)
 804c4d7:	ff 
 804c4d8:	8b 44 24 28          	mov    0x28(%esp),%eax
 804c4dc:	c7 00 00 00 00 00    	movl   $0x0,(%eax)
 804c4e2:	c7 40 04 00 00 00 00 	movl   $0x0,0x4(%eax)
 804c4e9:	0f 84 d8 01 00 00    	je     804c6c7 
 804c4ef:	c6 44 24 1c 01       	movb   $0x1,0x1c(%esp)
 804c4f4:	c7 44 24 2c 00 00 00 	movl   $0x0,0x2c(%esp)
 804c4fb:	00 
 804c4fc:	89 6c 24 48          	mov    %ebp,0x48(%esp)
 804c500:	89 7c 24 4c          	mov    %edi,0x4c(%esp)
 804c504:	89 74 24 38          	mov    %esi,0x38(%esp)
 804c508:	8b 6c 24 48          	mov    0x48(%esp),%ebp
 804c50c:	03 6c 24 2c          	add    0x2c(%esp),%ebp
 804c510:	8b 44 24 0c          	mov    0xc(%esp),%eax
 804c514:	ff 74 24 28          	pushl  0x28(%esp)
 804c518:	8d 34 28             	lea    (%eax,%ebp,1),%esi
 804c51b:	8b 84 24 84 00 00 00 	mov    0x84(%esp),%eax
 804c522:	29 e8                	sub    %ebp,%eax
 804c524:	50                   	push   %eax
 804c525:	56                   	push   %esi
 804c526:	ff 74 24 40          	pushl  0x40(%esp)
 804c52a:	8b 5c 24 24          	mov    0x24(%esp),%ebx
 804c52e:	e8 fd cb ff ff       	call   8049130 
 804c533:	83 c4 10             	add    $0x10,%esp
 804c536:	85 c0                	test   %eax,%eax
 804c538:	89 c7                	mov    %eax,%edi
 804c53a:	0f 84 9d 00 00 00    	je     804c5dd 
 804c540:	83 f8 ff             	cmp    $0xffffffff,%eax
 804c543:	0f 84 66 02 00 00    	je     804c7af 
 804c549:	83 f8 fe             	cmp    $0xfffffffe,%eax
 804c54c:	0f 84 0d 02 00 00    	je     804c75f 
 804c552:	83 bc 24 84 00 00 00 	cmpl   $0x2,0x84(%esp)
 804c559:	02 
 804c55a:	0f 94 c1             	sete   %cl
 804c55d:	22 4c 24 1e          	and    0x1e(%esp),%cl
 804c561:	74 44                	je     804c5a7 
 804c563:	83 f8 01             	cmp    $0x1,%eax
 804c566:	74 3f                	je     804c5a7 
 804c568:	8b 44 24 0c          	mov    0xc(%esp),%eax
 804c56c:	8d 54 3d 00          	lea    0x0(%ebp,%edi,1),%edx
 804c570:	8d 5c 28 01          	lea    0x1(%eax,%ebp,1),%ebx
 804c574:	01 c2                	add    %eax,%edx
 804c576:	8d 76 00             	lea    0x0(%esi),%esi
 804c579:	8d bc 27 00 00 00 00 	lea    0x0(%edi,%eiz,1),%edi
 804c580:	0f b6 03             	movzbl (%ebx),%eax
 804c583:	83 e8 5b             	sub    $0x5b,%eax
 804c586:	3c 21                	cmp    $0x21,%al
 804c588:	77 16                	ja     804c5a0 
 804c58a:	8b 74 24 14          	mov    0x14(%esp),%esi
 804c58e:	0f b6 c0             	movzbl %al,%eax
 804c591:	8b ac 86 a8 b7 ff ff 	mov    -0x4858(%esi,%eax,4),%ebp
 804c598:	01 f5                	add    %esi,%ebp
 804c59a:	ff e5                	jmp    *%ebp
 804c59c:	8d 74 26 00          	lea    0x0(%esi,%eiz,1),%esi
 804c5a0:	83 c3 01             	add    $0x1,%ebx
 804c5a3:	39 d3                	cmp    %edx,%ebx
 804c5a5:	75 d9                	jne    804c580 
 804c5a7:	83 ec 0c             	sub    $0xc,%esp
 804c5aa:	ff 74 24 5c          	pushl  0x5c(%esp)
 804c5ae:	8b 74 24 24          	mov    0x24(%esp),%esi
 804c5b2:	89 f3                	mov    %esi,%ebx
 804c5b4:	e8 17 cb ff ff       	call   80490d0 
 804c5b9:	5a                   	pop    %edx
 804c5ba:	83 f8 01             	cmp    $0x1,%eax
 804c5bd:	19 c0                	sbb    %eax,%eax
 804c5bf:	01 7c 24 38          	add    %edi,0x38(%esp)
 804c5c3:	f7 d0                	not    %eax
 804c5c5:	20 44 24 28          	and    %al,0x28(%esp)
 804c5c9:	ff 74 24 34          	pushl  0x34(%esp)
 804c5cd:	e8 5e ca ff ff       	call   8049030 
 804c5d2:	83 c4 10             	add    $0x10,%esp
 804c5d5:	85 c0                	test   %eax,%eax
 804c5d7:	0f 84 2b ff ff ff    	je     804c508 
 804c5dd:	8b 6c 24 48          	mov    0x48(%esp),%ebp
 804c5e1:	8b 7c 24 4c          	mov    0x4c(%esp),%edi
 804c5e5:	8b 74 24 38          	mov    0x38(%esp),%esi
 804c5e9:	83 7c 24 2c 01       	cmpl   $0x1,0x2c(%esp)
 804c5ee:	0f 87 35 fb ff ff    	ja     804c129 
 804c5f4:	e9 21 fb ff ff       	jmp    804c11a 
 804c5f9:	8d b4 26 00 00 00 00 	lea    0x0(%esi,%eiz,1),%esi
 804c600:	8b 74 24 38          	mov    0x38(%esp),%esi
 804c604:	e9 17 f7 ff ff       	jmp    804bd20 
 804c609:	8d b4 26 00 00 00 00 	lea    0x0(%esi,%eiz,1),%esi
 804c610:	f6 84 24 88 00 00 00 	testb  $0x1,0x88(%esp)
 804c617:	01 
 804c618:	0f 84 95 f7 ff ff    	je     804bdb3 
 804c61e:	83 c5 01             	add    $0x1,%ebp
 804c621:	e9 1a f5 ff ff       	jmp    804bb40 
 804c626:	8d 76 00             	lea    0x0(%esi),%esi
 804c629:	8d bc 27 00 00 00 00 	lea    0x0(%edi,%eiz,1),%edi
 804c630:	b8 01 00 00 00       	mov    $0x1,%eax
 804c635:	c6 44 24 04 30       	movb   $0x30,0x4(%esp)
 804c63a:	38 54 24 1d          	cmp    %dl,0x1d(%esp)
 804c63e:	0f 87 43 f6 ff ff    	ja     804bc87 
 804c644:	e9 61 f6 ff ff       	jmp    804bcaa 
 804c649:	8d b4 26 00 00 00 00 	lea    0x0(%esi,%eiz,1),%esi
 804c650:	0f b6 54 24 04       	movzbl 0x4(%esp),%edx
 804c655:	e9 52 f7 ff ff       	jmp    804bdac 
 804c65a:	8d b6 00 00 00 00    	lea    0x0(%esi),%esi
 804c660:	80 7c 24 1e 00       	cmpb   $0x0,0x1e(%esp)
 804c665:	0f 84 05 fa ff ff    	je     804c070 
 804c66b:	e9 b0 f6 ff ff       	jmp    804bd20 
 804c670:	8b 44 24 0c          	mov    0xc(%esp),%eax
 804c674:	80 78 01 00          	cmpb   $0x0,0x1(%eax)
 804c678:	0f 95 c0             	setne  %al
 804c67b:	e9 e1 f5 ff ff       	jmp    804bc61 
 804c680:	80 7c 24 1e 00       	cmpb   $0x0,0x1e(%esp)
 804c685:	0f 84 ad f8 ff ff    	je     804bf38 
 804c68b:	e9 90 f6 ff ff       	jmp    804bd20 
 804c690:	88 5c 24 10          	mov    %bl,0x10(%esp)
 804c694:	88 54 24 04          	mov    %dl,0x4(%esp)
 804c698:	0f b6 44 24 18       	movzbl 0x18(%esp),%eax
 804c69d:	e9 16 f6 ff ff       	jmp    804bcb8 
 804c6a2:	8d b6 00 00 00 00    	lea    0x0(%esi),%esi
 804c6a8:	88 5c 24 10          	mov    %bl,0x10(%esp)
 804c6ac:	88 54 24 04          	mov    %dl,0x4(%esp)
 804c6b0:	b8 01 00 00 00       	mov    $0x1,%eax
 804c6b5:	e9 fe f5 ff ff       	jmp    804bcb8 
 804c6ba:	8d b6 00 00 00 00    	lea    0x0(%esi),%esi
 804c6c0:	31 d2                	xor    %edx,%edx
 804c6c2:	e9 b4 f5 ff ff       	jmp    804bc7b 
 804c6c7:	83 ec 0c             	sub    $0xc,%esp
 804c6ca:	ff 74 24 18          	pushl  0x18(%esp)
 804c6ce:	8b 5c 24 24          	mov    0x24(%esp),%ebx
 804c6d2:	e8 79 cb ff ff       	call   8049250 
 804c6d7:	83 c4 10             	add    $0x10,%esp
 804c6da:	89 84 24 80 00 00 00 	mov    %eax,0x80(%esp)
 804c6e1:	e9 09 fe ff ff       	jmp    804c4ef 
 804c6e6:	8b 5c 24 14          	mov    0x14(%esp),%ebx
 804c6ea:	e8 b1 cc ff ff       	call   80493a0 
 804c6ef:	c6 44 24 1f 00       	movb   $0x0,0x1f(%esp)
 804c6f4:	e9 e5 fa ff ff       	jmp    804c1de 
 804c6f9:	8b 44 24 14          	mov    0x14(%esp),%eax
 804c6fd:	c6 44 24 1e 01       	movb   $0x1,0x1e(%esp)
 804c702:	31 ff                	xor    %edi,%edi
 804c704:	c6 44 24 1d 00       	movb   $0x0,0x1d(%esp)
 804c709:	c7 44 24 20 01 00 00 	movl   $0x1,0x20(%esp)
 804c710:	00 
 804c711:	8d 80 21 b5 ff ff    	lea    -0x4adf(%eax),%eax
 804c717:	89 44 24 30          	mov    %eax,0x30(%esp)
 804c71b:	e9 08 f4 ff ff       	jmp    804bb28 
 804c720:	8b 4c 24 08          	mov    0x8(%esp),%ecx
 804c724:	c6 04 39 30          	movb   $0x30,(%ecx,%edi,1)
 804c728:	e9 8c f7 ff ff       	jmp    804beb9 
 804c72d:	8b 94 24 84 00 00 00 	mov    0x84(%esp),%edx
 804c734:	8b 44 24 40          	mov    0x40(%esp),%eax
 804c738:	e8 53 f2 ff ff       	call   804b990 
 804c73d:	89 44 24 40          	mov    %eax,0x40(%esp)
 804c741:	e9 55 fb ff ff       	jmp    804c29b 
 804c746:	8b 94 24 84 00 00 00 	mov    0x84(%esp),%edx
 804c74d:	8b 44 24 3c          	mov    0x3c(%esp),%eax
 804c751:	e8 3a f2 ff ff       	call   804b990 
 804c756:	89 44 24 3c          	mov    %eax,0x3c(%esp)
 804c75a:	e9 64 fb ff ff       	jmp    804c2c3 
 804c75f:	89 ea                	mov    %ebp,%edx
 804c761:	39 94 24 80 00 00 00 	cmp    %edx,0x80(%esp)
 804c768:	89 f1                	mov    %esi,%ecx
 804c76a:	8b 7c 24 4c          	mov    0x4c(%esp),%edi
 804c76e:	8b 6c 24 48          	mov    0x48(%esp),%ebp
 804c772:	8b 74 24 38          	mov    0x38(%esp),%esi
 804c776:	76 2d                	jbe    804c7a5 
 804c778:	80 39 00             	cmpb   $0x0,(%ecx)
 804c77b:	74 28                	je     804c7a5 
 804c77d:	8b 44 24 2c          	mov    0x2c(%esp),%eax
 804c781:	8b 8c 24 80 00 00 00 	mov    0x80(%esp),%ecx
 804c788:	8b 5c 24 18          	mov    0x18(%esp),%ebx
 804c78c:	eb 08                	jmp    804c796 
 804c78e:	66 90                	xchg   %ax,%ax
 804c790:	80 3c 03 00          	cmpb   $0x0,(%ebx,%eax,1)
 804c794:	74 0b                	je     804c7a1 
 804c796:	83 c0 01             	add    $0x1,%eax
 804c799:	8d 54 05 00          	lea    0x0(%ebp,%eax,1),%edx
 804c79d:	39 d1                	cmp    %edx,%ecx
 804c79f:	77 ef                	ja     804c790 
 804c7a1:	89 44 24 2c          	mov    %eax,0x2c(%esp)
 804c7a5:	c6 44 24 1c 00       	movb   $0x0,0x1c(%esp)
 804c7aa:	e9 3a fe ff ff       	jmp    804c5e9 
 804c7af:	8b 6c 24 48          	mov    0x48(%esp),%ebp
 804c7b3:	8b 7c 24 4c          	mov    0x4c(%esp),%edi
 804c7b7:	8b 74 24 38          	mov    0x38(%esp),%esi
 804c7bb:	c6 44 24 1c 00       	movb   $0x0,0x1c(%esp)
 804c7c0:	e9 24 fe ff ff       	jmp    804c5e9 
 804c7c5:	e8 56 24 00 00       	call   804ec20 
 804c7ca:	8b 44 24 14          	mov    0x14(%esp),%eax
 804c7ce:	c6 44 24 1e 01       	movb   $0x1,0x1e(%esp)
 804c7d3:	31 ff                	xor    %edi,%edi
 804c7d5:	c6 44 24 1d 01       	movb   $0x1,0x1d(%esp)
 804c7da:	c7 44 24 20 01 00 00 	movl   $0x1,0x20(%esp)
 804c7e1:	00 
 804c7e2:	8d 80 1f b5 ff ff    	lea    -0x4ae1(%eax),%eax
 804c7e8:	89 44 24 30          	mov    %eax,0x30(%esp)
 804c7ec:	e9 37 f3 ff ff       	jmp    804bb28 
 804c7f1:	eb 0d                	jmp    804c800 
 804c7f3:	90                   	nop
 804c7f4:	90                   	nop
 804c7f5:	90                   	nop
 804c7f6:	90                   	nop
 804c7f7:	90                   	nop
 804c7f8:	90                   	nop
 804c7f9:	90                   	nop
 804c7fa:	90                   	nop
 804c7fb:	90                   	nop
 804c7fc:	90                   	nop
 804c7fd:	90                   	nop
 804c7fe:	90                   	nop
 804c7ff:	90                   	nop
 804c800:	55                   	push   %ebp
 804c801:	57                   	push   %edi
 804c802:	89 c7                	mov    %eax,%edi
 804c804:	56                   	push   %esi
 804c805:	53                   	push   %ebx
 804c806:	e8 35 d7 ff ff       	call   8049f40 
 804c80b:	81 c3 f5 77 00 00    	add    $0x77f5,%ebx
 804c811:	83 ec 2c             	sub    $0x2c,%esp
 804c814:	89 54 24 08          	mov    %edx,0x8(%esp)
 804c818:	89 4c 24 0c          	mov    %ecx,0xc(%esp)
 804c81c:	e8 7f ca ff ff       	call   80492a0 
 804c821:	89 44 24 10          	mov    %eax,0x10(%esp)
 804c825:	8b 00                	mov    (%eax),%eax
 804c827:	85 ff                	test   %edi,%edi
 804c829:	8b b3 74 01 00 00    	mov    0x174(%ebx),%esi
 804c82f:	89 44 24 14          	mov    %eax,0x14(%esp)
 804c833:	0f 88 5b 01 00 00    	js     804c994 
 804c839:	3b bb 70 01 00 00    	cmp    0x170(%ebx),%edi
 804c83f:	72 61                	jb     804c8a2 
 804c841:	ba 08 00 00 00       	mov    $0x8,%edx
 804c846:	8d 6f 01             	lea    0x1(%edi),%ebp
 804c849:	89 d0                	mov    %edx,%eax
 804c84b:	f7 e5                	mul    %ebp
 804c84d:	0f 80 46 01 00 00    	jo     804c999 
 804c853:	8d 93 78 01 00 00    	lea    0x178(%ebx),%edx
 804c859:	8d 04 ed 00 00 00 00 	lea    0x0(,%ebp,8),%eax
 804c860:	39 d6                	cmp    %edx,%esi
 804c862:	0f 84 00 01 00 00    	je     804c968 
 804c868:	83 ec 08             	sub    $0x8,%esp
 804c86b:	50                   	push   %eax
 804c86c:	56                   	push   %esi
 804c86d:	e8 ae 13 00 00       	call   804dc20 
 804c872:	83 c4 10             	add    $0x10,%esp
 804c875:	89 c6                	mov    %eax,%esi
 804c877:	89 83 74 01 00 00    	mov    %eax,0x174(%ebx)
 804c87d:	8b 93 70 01 00 00    	mov    0x170(%ebx),%edx
 804c883:	89 e8                	mov    %ebp,%eax
 804c885:	83 ec 04             	sub    $0x4,%esp
 804c888:	29 d0                	sub    %edx,%eax
 804c88a:	8d 14 d6             	lea    (%esi,%edx,8),%edx
 804c88d:	c1 e0 03             	shl    $0x3,%eax
 804c890:	50                   	push   %eax
 804c891:	6a 00                	push   $0x0
 804c893:	52                   	push   %edx
 804c894:	e8 e7 c9 ff ff       	call   8049280 
 804c899:	89 ab 70 01 00 00    	mov    %ebp,0x170(%ebx)
 804c89f:	83 c4 10             	add    $0x10,%esp
 804c8a2:	8b 44 24 40          	mov    0x40(%esp),%eax
 804c8a6:	8b 4c 24 40          	mov    0x40(%esp),%ecx
 804c8aa:	83 ec 08             	sub    $0x8,%esp
 804c8ad:	8d 3c fe             	lea    (%esi,%edi,8),%edi
 804c8b0:	8b 40 04             	mov    0x4(%eax),%eax
 804c8b3:	83 c1 08             	add    $0x8,%ecx
 804c8b6:	8b 2f                	mov    (%edi),%ebp
 804c8b8:	89 4c 24 24          	mov    %ecx,0x24(%esp)
 804c8bc:	8b 77 04             	mov    0x4(%edi),%esi
 804c8bf:	83 c8 01             	or     $0x1,%eax
 804c8c2:	89 44 24 20          	mov    %eax,0x20(%esp)
 804c8c6:	8b 54 24 48          	mov    0x48(%esp),%edx
 804c8ca:	ff 72 2c             	pushl  0x2c(%edx)
 804c8cd:	8b 54 24 4c          	mov    0x4c(%esp),%edx
 804c8d1:	ff 72 28             	pushl  0x28(%edx)
 804c8d4:	51                   	push   %ecx
 804c8d5:	89 ea                	mov    %ebp,%edx
 804c8d7:	50                   	push   %eax
 804c8d8:	8b 44 24 58          	mov    0x58(%esp),%eax
 804c8dc:	ff 30                	pushl  (%eax)
 804c8de:	ff 74 24 28          	pushl  0x28(%esp)
 804c8e2:	89 f0                	mov    %esi,%eax
 804c8e4:	8b 4c 24 28          	mov    0x28(%esp),%ecx
 804c8e8:	e8 83 f1 ff ff       	call   804ba70 
 804c8ed:	83 c4 20             	add    $0x20,%esp
 804c8f0:	39 c5                	cmp    %eax,%ebp
 804c8f2:	77 5b                	ja     804c94f 
 804c8f4:	8d 68 01             	lea    0x1(%eax),%ebp
 804c8f7:	8d 83 00 02 00 00    	lea    0x200(%ebx),%eax
 804c8fd:	39 c6                	cmp    %eax,%esi
 804c8ff:	89 2f                	mov    %ebp,(%edi)
 804c901:	74 0c                	je     804c90f 
 804c903:	83 ec 0c             	sub    $0xc,%esp
 804c906:	56                   	push   %esi
 804c907:	e8 04 c7 ff ff       	call   8049010 
 804c90c:	83 c4 10             	add    $0x10,%esp
 804c90f:	83 ec 0c             	sub    $0xc,%esp
 804c912:	55                   	push   %ebp
 804c913:	e8 88 12 00 00       	call   804dba0 
 804c918:	89 47 04             	mov    %eax,0x4(%edi)
 804c91b:	89 c6                	mov    %eax,%esi
 804c91d:	58                   	pop    %eax
 804c91e:	5a                   	pop    %edx
 804c91f:	8b 44 24 48          	mov    0x48(%esp),%eax
 804c923:	89 ea                	mov    %ebp,%edx
 804c925:	ff 70 2c             	pushl  0x2c(%eax)
 804c928:	8b 44 24 4c          	mov    0x4c(%esp),%eax
 804c92c:	ff 70 28             	pushl  0x28(%eax)
 804c92f:	ff 74 24 2c          	pushl  0x2c(%esp)
 804c933:	ff 74 24 2c          	pushl  0x2c(%esp)
 804c937:	8b 44 24 58          	mov    0x58(%esp),%eax
 804c93b:	ff 30                	pushl  (%eax)
 804c93d:	ff 74 24 28          	pushl  0x28(%esp)
 804c941:	89 f0                	mov    %esi,%eax
 804c943:	8b 4c 24 28          	mov    0x28(%esp),%ecx
 804c947:	e8 24 f1 ff ff       	call   804ba70 
 804c94c:	83 c4 20             	add    $0x20,%esp
 804c94f:	8b 44 24 10          	mov    0x10(%esp),%eax
 804c953:	8b 7c 24 14          	mov    0x14(%esp),%edi
 804c957:	89 38                	mov    %edi,(%eax)
 804c959:	83 c4 2c             	add    $0x2c,%esp
 804c95c:	89 f0                	mov    %esi,%eax
 804c95e:	5b                   	pop    %ebx
 804c95f:	5e                   	pop    %esi
 804c960:	5f                   	pop    %edi
 804c961:	5d                   	pop    %ebp
 804c962:	c3                   	ret    
 804c963:	90                   	nop
 804c964:	8d 74 26 00          	lea    0x0(%esi,%eiz,1),%esi
 804c968:	83 ec 08             	sub    $0x8,%esp
 804c96b:	50                   	push   %eax
 804c96c:	6a 00                	push   $0x0
 804c96e:	e8 ad 12 00 00       	call   804dc20 
 804c973:	8b 93 7c 01 00 00    	mov    0x17c(%ebx),%edx
 804c979:	89 c6                	mov    %eax,%esi
 804c97b:	89 83 74 01 00 00    	mov    %eax,0x174(%ebx)
 804c981:	8b 83 78 01 00 00    	mov    0x178(%ebx),%eax
 804c987:	83 c4 10             	add    $0x10,%esp
 804c98a:	89 56 04             	mov    %edx,0x4(%esi)
 804c98d:	89 06                	mov    %eax,(%esi)
 804c98f:	e9 e9 fe ff ff       	jmp    804c87d 
 804c994:	e8 07 ca ff ff       	call   80493a0 
 804c999:	e8 a2 14 00 00       	call   804de40 
 804c99e:	66 90                	xchg   %ax,%ax
 804c9a0:	55                   	push   %ebp
 804c9a1:	57                   	push   %edi
 804c9a2:	56                   	push   %esi
 804c9a3:	53                   	push   %ebx
 804c9a4:	e8 97 d5 ff ff       	call   8049f40 
 804c9a9:	81 c3 57 76 00 00    	add    $0x7657,%ebx
 804c9af:	83 ec 0c             	sub    $0xc,%esp
 804c9b2:	8b 74 24 20          	mov    0x20(%esp),%esi
 804c9b6:	e8 e5 c8 ff ff       	call   80492a0 
 804c9bb:	89 c7                	mov    %eax,%edi
 804c9bd:	8b 28                	mov    (%eax),%ebp
 804c9bf:	85 f6                	test   %esi,%esi
 804c9c1:	74 1d                	je     804c9e0 
 804c9c3:	83 ec 08             	sub    $0x8,%esp
 804c9c6:	6a 30                	push   $0x30
 804c9c8:	56                   	push   %esi
 804c9c9:	e8 12 14 00 00       	call   804dde0 
 804c9ce:	89 2f                	mov    %ebp,(%edi)
 804c9d0:	83 c4 1c             	add    $0x1c,%esp
 804c9d3:	5b                   	pop    %ebx
 804c9d4:	5e                   	pop    %esi
 804c9d5:	5f                   	pop    %edi
 804c9d6:	5d                   	pop    %ebp
 804c9d7:	c3                   	ret    
 804c9d8:	90                   	nop
 804c9d9:	8d b4 26 00 00 00 00 	lea    0x0(%esi,%eiz,1),%esi
 804c9e0:	8d b3 00 03 00 00    	lea    0x300(%ebx),%esi
 804c9e6:	eb db                	jmp    804c9c3 
 804c9e8:	90                   	nop
 804c9e9:	8d b4 26 00 00 00 00 	lea    0x0(%esi,%eiz,1),%esi
 804c9f0:	8b 44 24 04          	mov    0x4(%esp),%eax
 804c9f4:	e8 96 08 00 00       	call   804d28f 
 804c9f9:	81 c2 07 76 00 00    	add    $0x7607,%edx
 804c9ff:	85 c0                	test   %eax,%eax
 804ca01:	74 0d                	je     804ca10 
 804ca03:	8b 00                	mov    (%eax),%eax
 804ca05:	c3                   	ret    
 804ca06:	8d 76 00             	lea    0x0(%esi),%esi
 804ca09:	8d bc 27 00 00 00 00 	lea    0x0(%edi,%eiz,1),%edi
 804ca10:	8d 82 00 03 00 00    	lea    0x300(%edx),%eax
 804ca16:	8b 00                	mov    (%eax),%eax
 804ca18:	c3                   	ret    
 804ca19:	8d b4 26 00 00 00 00 	lea    0x0(%esi,%eiz,1),%esi
 804ca20:	8b 44 24 04          	mov    0x4(%esp),%eax
 804ca24:	e8 66 08 00 00       	call   804d28f 
 804ca29:	81 c2 d7 75 00 00    	add    $0x75d7,%edx
 804ca2f:	85 c0                	test   %eax,%eax
 804ca31:	74 0d                	je     804ca40 
 804ca33:	8b 54 24 08          	mov    0x8(%esp),%edx
 804ca37:	89 10                	mov    %edx,(%eax)
 804ca39:	c3                   	ret    
 804ca3a:	8d b6 00 00 00 00    	lea    0x0(%esi),%esi
 804ca40:	8d 82 00 03 00 00    	lea    0x300(%edx),%eax
 804ca46:	8b 54 24 08          	mov    0x8(%esp),%edx
 804ca4a:	89 10                	mov    %edx,(%eax)
 804ca4c:	c3                   	ret    
 804ca4d:	8d 76 00             	lea    0x0(%esi),%esi
 804ca50:	56                   	push   %esi
 804ca51:	53                   	push   %ebx
 804ca52:	8b 44 24 0c          	mov    0xc(%esp),%eax
 804ca56:	8b 4c 24 10          	mov    0x10(%esp),%ecx
 804ca5a:	e8 30 08 00 00       	call   804d28f 
 804ca5f:	81 c2 a1 75 00 00    	add    $0x75a1,%edx
 804ca65:	85 c0                	test   %eax,%eax
 804ca67:	74 2f                	je     804ca98 
 804ca69:	89 ca                	mov    %ecx,%edx
 804ca6b:	83 e1 1f             	and    $0x1f,%ecx
 804ca6e:	c0 ea 05             	shr    $0x5,%dl
 804ca71:	0f b6 d2             	movzbl %dl,%edx
 804ca74:	8d 74 90 08          	lea    0x8(%eax,%edx,4),%esi
 804ca78:	8b 54 24 14          	mov    0x14(%esp),%edx
 804ca7c:	8b 1e                	mov    (%esi),%ebx
 804ca7e:	89 d8                	mov    %ebx,%eax
 804ca80:	d3 e8                	shr    %cl,%eax
 804ca82:	31 c2                	xor    %eax,%edx
 804ca84:	83 e0 01             	and    $0x1,%eax
 804ca87:	83 e2 01             	and    $0x1,%edx
 804ca8a:	d3 e2                	shl    %cl,%edx
 804ca8c:	31 da                	xor    %ebx,%edx
 804ca8e:	89 16                	mov    %edx,(%esi)
 804ca90:	5b                   	pop    %ebx
 804ca91:	5e                   	pop    %esi
 804ca92:	c3                   	ret    
 804ca93:	90                   	nop
 804ca94:	8d 74 26 00          	lea    0x0(%esi,%eiz,1),%esi
 804ca98:	8d 82 00 03 00 00    	lea    0x300(%edx),%eax
 804ca9e:	eb c9                	jmp    804ca69 
 804caa0:	8b 54 24 04          	mov    0x4(%esp),%edx
 804caa4:	e8 4d ea ff ff       	call   804b4f6 
 804caa9:	05 57 75 00 00       	add    $0x7557,%eax
 804caae:	85 d2                	test   %edx,%edx
 804cab0:	74 0e                	je     804cac0 
 804cab2:	8b 4c 24 08          	mov    0x8(%esp),%ecx
 804cab6:	8b 42 04             	mov    0x4(%edx),%eax
 804cab9:	89 4a 04             	mov    %ecx,0x4(%edx)
 804cabc:	c3                   	ret    
 804cabd:	8d 76 00             	lea    0x0(%esi),%esi
 804cac0:	8b 4c 24 08          	mov    0x8(%esp),%ecx
 804cac4:	8d 90 00 03 00 00    	lea    0x300(%eax),%edx
 804caca:	8b 42 04             	mov    0x4(%edx),%eax
 804cacd:	89 4a 04             	mov    %ecx,0x4(%edx)
 804cad0:	c3                   	ret    
 804cad1:	eb 0d                	jmp    804cae0 
 804cad3:	90                   	nop
 804cad4:	90                   	nop
 804cad5:	90                   	nop
 804cad6:	90                   	nop
 804cad7:	90                   	nop
 804cad8:	90                   	nop
 804cad9:	90                   	nop
 804cada:	90                   	nop
 804cadb:	90                   	nop
 804cadc:	90                   	nop
 804cadd:	90                   	nop
 804cade:	90                   	nop
 804cadf:	90                   	nop
 804cae0:	53                   	push   %ebx
 804cae1:	e8 5a d4 ff ff       	call   8049f40 
 804cae6:	81 c3 1a 75 00 00    	add    $0x751a,%ebx
 804caec:	83 ec 08             	sub    $0x8,%esp
 804caef:	8b 44 24 10          	mov    0x10(%esp),%eax
 804caf3:	8b 54 24 14          	mov    0x14(%esp),%edx
 804caf7:	8b 4c 24 18          	mov    0x18(%esp),%ecx
 804cafb:	85 c0                	test   %eax,%eax
 804cafd:	74 21                	je     804cb20 
 804caff:	85 d2                	test   %edx,%edx
 804cb01:	c7 00 0a 00 00 00    	movl   $0xa,(%eax)
 804cb07:	74 1f                	je     804cb28 
 804cb09:	85 c9                	test   %ecx,%ecx
 804cb0b:	74 1b                	je     804cb28 
 804cb0d:	89 50 28             	mov    %edx,0x28(%eax)
 804cb10:	89 48 2c             	mov    %ecx,0x2c(%eax)
 804cb13:	83 c4 08             	add    $0x8,%esp
 804cb16:	5b                   	pop    %ebx
 804cb17:	c3                   	ret    
 804cb18:	90                   	nop
 804cb19:	8d b4 26 00 00 00 00 	lea    0x0(%esi,%eiz,1),%esi
 804cb20:	8d 83 00 03 00 00    	lea    0x300(%ebx),%eax
 804cb26:	eb d7                	jmp    804caff 
 804cb28:	e8 73 c8 ff ff       	call   80493a0 
 804cb2d:	8d 76 00             	lea    0x0(%esi),%esi
 804cb30:	57                   	push   %edi
 804cb31:	56                   	push   %esi
 804cb32:	53                   	push   %ebx
 804cb33:	8b 74 24 20          	mov    0x20(%esp),%esi
 804cb37:	e8 04 d4 ff ff       	call   8049f40 
 804cb3c:	81 c3 c4 74 00 00    	add    $0x74c4,%ebx
 804cb42:	85 f6                	test   %esi,%esi
 804cb44:	74 3a                	je     804cb80 
 804cb46:	e8 55 c7 ff ff       	call   80492a0 
 804cb4b:	8b 38                	mov    (%eax),%edi
 804cb4d:	89 c3                	mov    %eax,%ebx
 804cb4f:	8d 46 08             	lea    0x8(%esi),%eax
 804cb52:	83 ec 08             	sub    $0x8,%esp
 804cb55:	ff 76 2c             	pushl  0x2c(%esi)
 804cb58:	ff 76 28             	pushl  0x28(%esi)
 804cb5b:	50                   	push   %eax
 804cb5c:	ff 76 04             	pushl  0x4(%esi)
 804cb5f:	ff 36                	pushl  (%esi)
 804cb61:	ff 74 24 38          	pushl  0x38(%esp)
 804cb65:	8b 4c 24 38          	mov    0x38(%esp),%ecx
 804cb69:	8b 54 24 34          	mov    0x34(%esp),%edx
 804cb6d:	8b 44 24 30          	mov    0x30(%esp),%eax
 804cb71:	e8 fa ee ff ff       	call   804ba70 
 804cb76:	83 c4 20             	add    $0x20,%esp
 804cb79:	89 3b                	mov    %edi,(%ebx)
 804cb7b:	5b                   	pop    %ebx
 804cb7c:	5e                   	pop    %esi
 804cb7d:	5f                   	pop    %edi
 804cb7e:	c3                   	ret    
 804cb7f:	90                   	nop
 804cb80:	8d b3 00 03 00 00    	lea    0x300(%ebx),%esi
 804cb86:	eb be                	jmp    804cb46 
 804cb88:	90                   	nop
 804cb89:	8d b4 26 00 00 00 00 	lea    0x0(%esi,%eiz,1),%esi
 804cb90:	55                   	push   %ebp
 804cb91:	57                   	push   %edi
 804cb92:	56                   	push   %esi
 804cb93:	53                   	push   %ebx
 804cb94:	e8 a7 d3 ff ff       	call   8049f40 
 804cb99:	81 c3 67 74 00 00    	add    $0x7467,%ebx
 804cb9f:	83 ec 1c             	sub    $0x1c,%esp
 804cba2:	8b 74 24 3c          	mov    0x3c(%esp),%esi
 804cba6:	85 f6                	test   %esi,%esi
 804cba8:	0f 84 a2 00 00 00    	je     804cc50 
 804cbae:	e8 ed c6 ff ff       	call   80492a0 
 804cbb3:	8b 54 24 38          	mov    0x38(%esp),%edx
 804cbb7:	89 c5                	mov    %eax,%ebp
 804cbb9:	8b 00                	mov    (%eax),%eax
 804cbbb:	8d 7e 08             	lea    0x8(%esi),%edi
 804cbbe:	89 44 24 04          	mov    %eax,0x4(%esp)
 804cbc2:	31 c0                	xor    %eax,%eax
 804cbc4:	85 d2                	test   %edx,%edx
 804cbc6:	0f 94 c0             	sete   %al
 804cbc9:	0b 46 04             	or     0x4(%esi),%eax
 804cbcc:	83 ec 08             	sub    $0x8,%esp
 804cbcf:	ff 76 2c             	pushl  0x2c(%esi)
 804cbd2:	ff 76 28             	pushl  0x28(%esi)
 804cbd5:	31 d2                	xor    %edx,%edx
 804cbd7:	57                   	push   %edi
 804cbd8:	89 44 24 14          	mov    %eax,0x14(%esp)
 804cbdc:	50                   	push   %eax
 804cbdd:	31 c0                	xor    %eax,%eax
 804cbdf:	ff 36                	pushl  (%esi)
 804cbe1:	ff 74 24 50          	pushl  0x50(%esp)
 804cbe5:	8b 4c 24 50          	mov    0x50(%esp),%ecx
 804cbe9:	e8 82 ee ff ff       	call   804ba70 
 804cbee:	8d 50 01             	lea    0x1(%eax),%edx
 804cbf1:	89 44 24 2c          	mov    %eax,0x2c(%esp)
 804cbf5:	83 c4 14             	add    $0x14,%esp
 804cbf8:	52                   	push   %edx
 804cbf9:	89 54 24 18          	mov    %edx,0x18(%esp)
 804cbfd:	e8 9e 0f 00 00       	call   804dba0 
 804cc02:	59                   	pop    %ecx
 804cc03:	89 c3                	mov    %eax,%ebx
 804cc05:	58                   	pop    %eax
 804cc06:	ff 76 2c             	pushl  0x2c(%esi)
 804cc09:	ff 76 28             	pushl  0x28(%esi)
 804cc0c:	89 d8                	mov    %ebx,%eax
 804cc0e:	57                   	push   %edi
 804cc0f:	ff 74 24 14          	pushl  0x14(%esp)
 804cc13:	ff 36                	pushl  (%esi)
 804cc15:	ff 74 24 50          	pushl  0x50(%esp)
 804cc19:	8b 4c 24 50          	mov    0x50(%esp),%ecx
 804cc1d:	8b 54 24 28          	mov    0x28(%esp),%edx
 804cc21:	e8 4a ee ff ff       	call   804ba70 
 804cc26:	8b 44 24 24          	mov    0x24(%esp),%eax
 804cc2a:	83 c4 20             	add    $0x20,%esp
 804cc2d:	89 45 00             	mov    %eax,0x0(%ebp)
 804cc30:	8b 44 24 38          	mov    0x38(%esp),%eax
 804cc34:	85 c0                	test   %eax,%eax
 804cc36:	74 0a                	je     804cc42 
 804cc38:	8b 44 24 38          	mov    0x38(%esp),%eax
 804cc3c:	8b 4c 24 0c          	mov    0xc(%esp),%ecx
 804cc40:	89 08                	mov    %ecx,(%eax)
 804cc42:	83 c4 1c             	add    $0x1c,%esp
 804cc45:	89 d8                	mov    %ebx,%eax
 804cc47:	5b                   	pop    %ebx
 804cc48:	5e                   	pop    %esi
 804cc49:	5f                   	pop    %edi
 804cc4a:	5d                   	pop    %ebp
 804cc4b:	c3                   	ret    
 804cc4c:	8d 74 26 00          	lea    0x0(%esi,%eiz,1),%esi
 804cc50:	8d b3 00 03 00 00    	lea    0x300(%ebx),%esi
 804cc56:	e9 53 ff ff ff       	jmp    804cbae 
 804cc5b:	90                   	nop
 804cc5c:	8d 74 26 00          	lea    0x0(%esi,%eiz,1),%esi
 804cc60:	53                   	push   %ebx
 804cc61:	e8 da d2 ff ff       	call   8049f40 
 804cc66:	81 c3 9a 73 00 00    	add    $0x739a,%ebx
 804cc6c:	83 ec 08             	sub    $0x8,%esp
 804cc6f:	ff 74 24 18          	pushl  0x18(%esp)
 804cc73:	6a 00                	push   $0x0
 804cc75:	ff 74 24 1c          	pushl  0x1c(%esp)
 804cc79:	ff 74 24 1c          	pushl  0x1c(%esp)
 804cc7d:	e8 0e ff ff ff       	call   804cb90 
 804cc82:	83 c4 18             	add    $0x18,%esp
 804cc85:	5b                   	pop    %ebx
 804cc86:	c3                   	ret    
 804cc87:	89 f6                	mov    %esi,%esi
 804cc89:	8d bc 27 00 00 00 00 	lea    0x0(%edi,%eiz,1),%edi
 804cc90:	55                   	push   %ebp
 804cc91:	57                   	push   %edi
 804cc92:	56                   	push   %esi
 804cc93:	53                   	push   %ebx
 804cc94:	be 01 00 00 00       	mov    $0x1,%esi
 804cc99:	e8 a2 d2 ff ff       	call   8049f40 
 804cc9e:	81 c3 62 73 00 00    	add    $0x7362,%ebx
 804cca4:	83 ec 0c             	sub    $0xc,%esp
 804cca7:	8b ab 70 01 00 00    	mov    0x170(%ebx),%ebp
 804ccad:	8b bb 74 01 00 00    	mov    0x174(%ebx),%edi
 804ccb3:	83 fd 01             	cmp    $0x1,%ebp
 804ccb6:	76 1e                	jbe    804ccd6 
 804ccb8:	90                   	nop
 804ccb9:	8d b4 26 00 00 00 00 	lea    0x0(%esi,%eiz,1),%esi
 804ccc0:	83 ec 0c             	sub    $0xc,%esp
 804ccc3:	ff 74 f7 04          	pushl  0x4(%edi,%esi,8)
 804ccc7:	83 c6 01             	add    $0x1,%esi
 804ccca:	e8 41 c3 ff ff       	call   8049010 
 804cccf:	83 c4 10             	add    $0x10,%esp
 804ccd2:	39 ee                	cmp    %ebp,%esi
 804ccd4:	75 ea                	jne    804ccc0 
 804ccd6:	8b 47 04             	mov    0x4(%edi),%eax
 804ccd9:	8d b3 00 02 00 00    	lea    0x200(%ebx),%esi
 804ccdf:	39 f0                	cmp    %esi,%eax
 804cce1:	74 1c                	je     804ccff 
 804cce3:	83 ec 0c             	sub    $0xc,%esp
 804cce6:	50                   	push   %eax
 804cce7:	e8 24 c3 ff ff       	call   8049010 
 804ccec:	c7 83 78 01 00 00 00 	movl   $0x100,0x178(%ebx)
 804ccf3:	01 00 00 
 804ccf6:	89 b3 7c 01 00 00    	mov    %esi,0x17c(%ebx)
 804ccfc:	83 c4 10             	add    $0x10,%esp
 804ccff:	8d b3 78 01 00 00    	lea    0x178(%ebx),%esi
 804cd05:	39 f7                	cmp    %esi,%edi
 804cd07:	74 12                	je     804cd1b 
 804cd09:	83 ec 0c             	sub    $0xc,%esp
 804cd0c:	57                   	push   %edi
 804cd0d:	e8 fe c2 ff ff       	call   8049010 
 804cd12:	89 b3 74 01 00 00    	mov    %esi,0x174(%ebx)
 804cd18:	83 c4 10             	add    $0x10,%esp
 804cd1b:	c7 83 70 01 00 00 01 	movl   $0x1,0x170(%ebx)
 804cd22:	00 00 00 
 804cd25:	83 c4 0c             	add    $0xc,%esp
 804cd28:	5b                   	pop    %ebx
 804cd29:	5e                   	pop    %esi
 804cd2a:	5f                   	pop    %edi
 804cd2b:	5d                   	pop    %ebp
 804cd2c:	c3                   	ret    
 804cd2d:	8d 76 00             	lea    0x0(%esi),%esi
 804cd30:	e8 5a 05 00 00       	call   804d28f 
 804cd35:	81 c2 cb 72 00 00    	add    $0x72cb,%edx
 804cd3b:	8b 44 24 04          	mov    0x4(%esp),%eax
 804cd3f:	b9 ff ff ff ff       	mov    $0xffffffff,%ecx
 804cd44:	8d 92 00 03 00 00    	lea    0x300(%edx),%edx
 804cd4a:	89 54 24 04          	mov    %edx,0x4(%esp)
 804cd4e:	8b 54 24 08          	mov    0x8(%esp),%edx
 804cd52:	e9 a9 fa ff ff       	jmp    804c800 
 804cd57:	89 f6                	mov    %esi,%esi
 804cd59:	8d bc 27 00 00 00 00 	lea    0x0(%edi,%eiz,1),%edi
 804cd60:	e8 2a 05 00 00       	call   804d28f 
 804cd65:	81 c2 9b 72 00 00    	add    $0x729b,%edx
 804cd6b:	8b 44 24 04          	mov    0x4(%esp),%eax
 804cd6f:	8b 4c 24 0c          	mov    0xc(%esp),%ecx
 804cd73:	8d 92 00 03 00 00    	lea    0x300(%edx),%edx
 804cd79:	89 54 24 04          	mov    %edx,0x4(%esp)
 804cd7d:	8b 54 24 08          	mov    0x8(%esp),%edx
 804cd81:	e9 7a fa ff ff       	jmp    804c800 
 804cd86:	8d 76 00             	lea    0x0(%esi),%esi
 804cd89:	8d bc 27 00 00 00 00 	lea    0x0(%edi,%eiz,1),%edi
 804cd90:	53                   	push   %ebx
 804cd91:	e8 aa d1 ff ff       	call   8049f40 
 804cd96:	81 c3 6a 72 00 00    	add    $0x726a,%ebx
 804cd9c:	83 ec 10             	sub    $0x10,%esp
 804cd9f:	ff 74 24 18          	pushl  0x18(%esp)
 804cda3:	6a 00                	push   $0x0
 804cda5:	e8 86 ff ff ff       	call   804cd30 
 804cdaa:	83 c4 18             	add    $0x18,%esp
 804cdad:	5b                   	pop    %ebx
 804cdae:	c3                   	ret    
 804cdaf:	90                   	nop
 804cdb0:	53                   	push   %ebx
 804cdb1:	e8 8a d1 ff ff       	call   8049f40 
 804cdb6:	81 c3 4a 72 00 00    	add    $0x724a,%ebx
 804cdbc:	83 ec 0c             	sub    $0xc,%esp
 804cdbf:	ff 74 24 18          	pushl  0x18(%esp)
 804cdc3:	ff 74 24 18          	pushl  0x18(%esp)
 804cdc7:	6a 00                	push   $0x0
 804cdc9:	e8 92 ff ff ff       	call   804cd60 
 804cdce:	83 c4 18             	add    $0x18,%esp
 804cdd1:	5b                   	pop    %ebx
 804cdd2:	c3                   	ret    
 804cdd3:	8d b6 00 00 00 00    	lea    0x0(%esi),%esi
 804cdd9:	8d bc 27 00 00 00 00 	lea    0x0(%edi,%eiz,1),%edi
 804cde0:	53                   	push   %ebx
 804cde1:	83 ec 38             	sub    $0x38,%esp
 804cde4:	8b 54 24 44          	mov    0x44(%esp),%edx
 804cde8:	89 e0                	mov    %esp,%eax
 804cdea:	89 e3                	mov    %esp,%ebx
 804cdec:	e8 6f eb ff ff       	call   804b960 
 804cdf1:	83 ec 0c             	sub    $0xc,%esp
 804cdf4:	b9 ff ff ff ff       	mov    $0xffffffff,%ecx
 804cdf9:	53                   	push   %ebx
 804cdfa:	8b 54 24 58          	mov    0x58(%esp),%edx
 804cdfe:	8b 44 24 50          	mov    0x50(%esp),%eax
 804ce02:	e8 f9 f9 ff ff       	call   804c800 
 804ce07:	83 c4 48             	add    $0x48,%esp
 804ce0a:	5b                   	pop    %ebx
 804ce0b:	c3                   	ret    
 804ce0c:	8d 74 26 00          	lea    0x0(%esi,%eiz,1),%esi
 804ce10:	53                   	push   %ebx
 804ce11:	83 ec 38             	sub    $0x38,%esp
 804ce14:	8b 54 24 44          	mov    0x44(%esp),%edx
 804ce18:	89 e0                	mov    %esp,%eax
 804ce1a:	89 e3                	mov    %esp,%ebx
 804ce1c:	e8 3f eb ff ff       	call   804b960 
 804ce21:	83 ec 0c             	sub    $0xc,%esp
 804ce24:	53                   	push   %ebx
 804ce25:	8b 4c 24 5c          	mov    0x5c(%esp),%ecx
 804ce29:	8b 54 24 58          	mov    0x58(%esp),%edx
 804ce2d:	8b 44 24 50          	mov    0x50(%esp),%eax
 804ce31:	e8 ca f9 ff ff       	call   804c800 
 804ce36:	83 c4 48             	add    $0x48,%esp
 804ce39:	5b                   	pop    %ebx
 804ce3a:	c3                   	ret    
 804ce3b:	90                   	nop
 804ce3c:	8d 74 26 00          	lea    0x0(%esi,%eiz,1),%esi
 804ce40:	53                   	push   %ebx
 804ce41:	e8 fa d0 ff ff       	call   8049f40 
 804ce46:	81 c3 ba 71 00 00    	add    $0x71ba,%ebx
 804ce4c:	83 ec 0c             	sub    $0xc,%esp
 804ce4f:	ff 74 24 18          	pushl  0x18(%esp)
 804ce53:	ff 74 24 18          	pushl  0x18(%esp)
 804ce57:	6a 00                	push   $0x0
 804ce59:	e8 82 ff ff ff       	call   804cde0 
 804ce5e:	83 c4 18             	add    $0x18,%esp
 804ce61:	5b                   	pop    %ebx
 804ce62:	c3                   	ret    
 804ce63:	8d b6 00 00 00 00    	lea    0x0(%esi),%esi
 804ce69:	8d bc 27 00 00 00 00 	lea    0x0(%edi,%eiz,1),%edi
 804ce70:	53                   	push   %ebx
 804ce71:	e8 ca d0 ff ff       	call   8049f40 
 804ce76:	81 c3 8a 71 00 00    	add    $0x718a,%ebx
 804ce7c:	83 ec 08             	sub    $0x8,%esp
 804ce7f:	ff 74 24 18          	pushl  0x18(%esp)
 804ce83:	ff 74 24 18          	pushl  0x18(%esp)
 804ce87:	ff 74 24 18          	pushl  0x18(%esp)
 804ce8b:	6a 00                	push   $0x0
 804ce8d:	e8 7e ff ff ff       	call   804ce10 
 804ce92:	83 c4 18             	add    $0x18,%esp
 804ce95:	5b                   	pop    %ebx
 804ce96:	c3                   	ret    
 804ce97:	89 f6                	mov    %esi,%esi
 804ce99:	8d bc 27 00 00 00 00 	lea    0x0(%edi,%eiz,1),%edi
 804cea0:	56                   	push   %esi
 804cea1:	53                   	push   %ebx
 804cea2:	e8 99 d0 ff ff       	call   8049f40 
 804cea7:	81 c3 59 71 00 00    	add    $0x7159,%ebx
 804cead:	83 ec 38             	sub    $0x38,%esp
 804ceb0:	8b 83 00 03 00 00    	mov    0x300(%ebx),%eax
 804ceb6:	89 44 24 04          	mov    %eax,0x4(%esp)
 804ceba:	8b 83 04 03 00 00    	mov    0x304(%ebx),%eax
 804cec0:	89 44 24 08          	mov    %eax,0x8(%esp)
 804cec4:	8b 83 08 03 00 00    	mov    0x308(%ebx),%eax
 804ceca:	89 44 24 0c          	mov    %eax,0xc(%esp)
 804cece:	8b 83 0c 03 00 00    	mov    0x30c(%ebx),%eax
 804ced4:	89 44 24 10          	mov    %eax,0x10(%esp)
 804ced8:	8b 83 10 03 00 00    	mov    0x310(%ebx),%eax
 804cede:	89 44 24 14          	mov    %eax,0x14(%esp)
 804cee2:	8b 83 14 03 00 00    	mov    0x314(%ebx),%eax
 804cee8:	89 44 24 18          	mov    %eax,0x18(%esp)
 804ceec:	8b 83 18 03 00 00    	mov    0x318(%ebx),%eax
 804cef2:	89 44 24 1c          	mov    %eax,0x1c(%esp)
 804cef6:	8b 83 1c 03 00 00    	mov    0x31c(%ebx),%eax
 804cefc:	89 44 24 20          	mov    %eax,0x20(%esp)
 804cf00:	8b 83 20 03 00 00    	mov    0x320(%ebx),%eax
 804cf06:	89 44 24 24          	mov    %eax,0x24(%esp)
 804cf0a:	8b 83 24 03 00 00    	mov    0x324(%ebx),%eax
 804cf10:	89 44 24 28          	mov    %eax,0x28(%esp)
 804cf14:	8b 83 28 03 00 00    	mov    0x328(%ebx),%eax
 804cf1a:	89 44 24 2c          	mov    %eax,0x2c(%esp)
 804cf1e:	8b 83 2c 03 00 00    	mov    0x32c(%ebx),%eax
 804cf24:	89 44 24 30          	mov    %eax,0x30(%esp)
 804cf28:	6a 01                	push   $0x1
 804cf2a:	0f be 44 24 50       	movsbl 0x50(%esp),%eax
 804cf2f:	50                   	push   %eax
 804cf30:	8d 74 24 0c          	lea    0xc(%esp),%esi
 804cf34:	56                   	push   %esi
 804cf35:	e8 16 fb ff ff       	call   804ca50 
 804cf3a:	8b 4c 24 54          	mov    0x54(%esp),%ecx
 804cf3e:	8b 54 24 50          	mov    0x50(%esp),%edx
 804cf42:	31 c0                	xor    %eax,%eax
 804cf44:	89 34 24             	mov    %esi,(%esp)
 804cf47:	e8 b4 f8 ff ff       	call   804c800 
 804cf4c:	83 c4 44             	add    $0x44,%esp
 804cf4f:	5b                   	pop    %ebx
 804cf50:	5e                   	pop    %esi
 804cf51:	c3                   	ret    
 804cf52:	8d b4 26 00 00 00 00 	lea    0x0(%esi,%eiz,1),%esi
 804cf59:	8d bc 27 00 00 00 00 	lea    0x0(%edi,%eiz,1),%edi
 804cf60:	53                   	push   %ebx
 804cf61:	e8 da cf ff ff       	call   8049f40 
 804cf66:	81 c3 9a 70 00 00    	add    $0x709a,%ebx
 804cf6c:	83 ec 0c             	sub    $0xc,%esp
 804cf6f:	0f be 44 24 18       	movsbl 0x18(%esp),%eax
 804cf74:	50                   	push   %eax
 804cf75:	6a ff                	push   $0xffffffff
 804cf77:	ff 74 24 1c          	pushl  0x1c(%esp)
 804cf7b:	e8 20 ff ff ff       	call   804cea0 
 804cf80:	83 c4 18             	add    $0x18,%esp
 804cf83:	5b                   	pop    %ebx
 804cf84:	c3                   	ret    
 804cf85:	8d 74 26 00          	lea    0x0(%esi,%eiz,1),%esi
 804cf89:	8d bc 27 00 00 00 00 	lea    0x0(%edi,%eiz,1),%edi
 804cf90:	53                   	push   %ebx
 804cf91:	e8 aa cf ff ff       	call   8049f40 
 804cf96:	81 c3 6a 70 00 00    	add    $0x706a,%ebx
 804cf9c:	83 ec 10             	sub    $0x10,%esp
 804cf9f:	6a 3a                	push   $0x3a
 804cfa1:	ff 74 24 1c          	pushl  0x1c(%esp)
 804cfa5:	e8 b6 ff ff ff       	call   804cf60 
 804cfaa:	83 c4 18             	add    $0x18,%esp
 804cfad:	5b                   	pop    %ebx
 804cfae:	c3                   	ret    
 804cfaf:	90                   	nop
 804cfb0:	53                   	push   %ebx
 804cfb1:	e8 8a cf ff ff       	call   8049f40 
 804cfb6:	81 c3 4a 70 00 00    	add    $0x704a,%ebx
 804cfbc:	83 ec 0c             	sub    $0xc,%esp
 804cfbf:	6a 3a                	push   $0x3a
 804cfc1:	ff 74 24 1c          	pushl  0x1c(%esp)
 804cfc5:	ff 74 24 1c          	pushl  0x1c(%esp)
 804cfc9:	e8 d2 fe ff ff       	call   804cea0 
 804cfce:	83 c4 18             	add    $0x18,%esp
 804cfd1:	5b                   	pop    %ebx
 804cfd2:	c3                   	ret    
 804cfd3:	8d b6 00 00 00 00    	lea    0x0(%esi),%esi
 804cfd9:	8d bc 27 00 00 00 00 	lea    0x0(%edi,%eiz,1),%edi
 804cfe0:	56                   	push   %esi
 804cfe1:	53                   	push   %ebx
 804cfe2:	e8 59 cf ff ff       	call   8049f40 
 804cfe7:	81 c3 19 70 00 00    	add    $0x7019,%ebx
 804cfed:	83 ec 64             	sub    $0x64,%esp
 804cff0:	8b 54 24 74          	mov    0x74(%esp),%edx
 804cff4:	89 e0                	mov    %esp,%eax
 804cff6:	e8 65 e9 ff ff       	call   804b960 
 804cffb:	8b 04 24             	mov    (%esp),%eax
 804cffe:	83 ec 04             	sub    $0x4,%esp
 804d001:	89 44 24 34          	mov    %eax,0x34(%esp)
 804d005:	8b 44 24 08          	mov    0x8(%esp),%eax
 804d009:	89 44 24 38          	mov    %eax,0x38(%esp)
 804d00d:	8b 44 24 0c          	mov    0xc(%esp),%eax
 804d011:	89 44 24 3c          	mov    %eax,0x3c(%esp)
 804d015:	8b 44 24 10          	mov    0x10(%esp),%eax
 804d019:	89 44 24 40          	mov    %eax,0x40(%esp)
 804d01d:	8b 44 24 14          	mov    0x14(%esp),%eax
 804d021:	89 44 24 44          	mov    %eax,0x44(%esp)
 804d025:	8b 44 24 18          	mov    0x18(%esp),%eax
 804d029:	89 44 24 48          	mov    %eax,0x48(%esp)
 804d02d:	8b 44 24 1c          	mov    0x1c(%esp),%eax
 804d031:	89 44 24 4c          	mov    %eax,0x4c(%esp)
 804d035:	8b 44 24 20          	mov    0x20(%esp),%eax
 804d039:	89 44 24 50          	mov    %eax,0x50(%esp)
 804d03d:	8b 44 24 24          	mov    0x24(%esp),%eax
 804d041:	89 44 24 54          	mov    %eax,0x54(%esp)
 804d045:	8b 44 24 28          	mov    0x28(%esp),%eax
 804d049:	89 44 24 58          	mov    %eax,0x58(%esp)
 804d04d:	8b 44 24 2c          	mov    0x2c(%esp),%eax
 804d051:	89 44 24 5c          	mov    %eax,0x5c(%esp)
 804d055:	8b 44 24 30          	mov    0x30(%esp),%eax
 804d059:	89 44 24 60          	mov    %eax,0x60(%esp)
 804d05d:	6a 01                	push   $0x1
 804d05f:	6a 3a                	push   $0x3a
 804d061:	8d 74 24 3c          	lea    0x3c(%esp),%esi
 804d065:	56                   	push   %esi
 804d066:	e8 e5 f9 ff ff       	call   804ca50 
 804d06b:	8b 94 24 88 00 00 00 	mov    0x88(%esp),%edx
 804d072:	8b 84 24 80 00 00 00 	mov    0x80(%esp),%eax
 804d079:	b9 ff ff ff ff       	mov    $0xffffffff,%ecx
 804d07e:	89 34 24             	mov    %esi,(%esp)
 804d081:	e8 7a f7 ff ff       	call   804c800 
 804d086:	83 c4 74             	add    $0x74,%esp
 804d089:	5b                   	pop    %ebx
 804d08a:	5e                   	pop    %esi
 804d08b:	c3                   	ret    
 804d08c:	8d 74 26 00          	lea    0x0(%esi,%eiz,1),%esi
 804d090:	56                   	push   %esi
 804d091:	53                   	push   %ebx
 804d092:	e8 a9 ce ff ff       	call   8049f40 
 804d097:	81 c3 69 6f 00 00    	add    $0x6f69,%ebx
 804d09d:	83 ec 38             	sub    $0x38,%esp
 804d0a0:	8b 83 00 03 00 00    	mov    0x300(%ebx),%eax
 804d0a6:	89 44 24 04          	mov    %eax,0x4(%esp)
 804d0aa:	8b 83 04 03 00 00    	mov    0x304(%ebx),%eax
 804d0b0:	89 44 24 08          	mov    %eax,0x8(%esp)
 804d0b4:	8b 83 08 03 00 00    	mov    0x308(%ebx),%eax
 804d0ba:	89 44 24 0c          	mov    %eax,0xc(%esp)
 804d0be:	8b 83 0c 03 00 00    	mov    0x30c(%ebx),%eax
 804d0c4:	89 44 24 10          	mov    %eax,0x10(%esp)
 804d0c8:	8b 83 10 03 00 00    	mov    0x310(%ebx),%eax
 804d0ce:	89 44 24 14          	mov    %eax,0x14(%esp)
 804d0d2:	8b 83 14 03 00 00    	mov    0x314(%ebx),%eax
 804d0d8:	89 44 24 18          	mov    %eax,0x18(%esp)
 804d0dc:	8b 83 18 03 00 00    	mov    0x318(%ebx),%eax
 804d0e2:	89 44 24 1c          	mov    %eax,0x1c(%esp)
 804d0e6:	8b 83 1c 03 00 00    	mov    0x31c(%ebx),%eax
 804d0ec:	89 44 24 20          	mov    %eax,0x20(%esp)
 804d0f0:	8b 83 20 03 00 00    	mov    0x320(%ebx),%eax
 804d0f6:	89 44 24 24          	mov    %eax,0x24(%esp)
 804d0fa:	8b 83 24 03 00 00    	mov    0x324(%ebx),%eax
 804d100:	89 44 24 28          	mov    %eax,0x28(%esp)
 804d104:	8b 83 28 03 00 00    	mov    0x328(%ebx),%eax
 804d10a:	89 44 24 2c          	mov    %eax,0x2c(%esp)
 804d10e:	8b 83 2c 03 00 00    	mov    0x32c(%ebx),%eax
 804d114:	89 44 24 30          	mov    %eax,0x30(%esp)
 804d118:	ff 74 24 4c          	pushl  0x4c(%esp)
 804d11c:	ff 74 24 4c          	pushl  0x4c(%esp)
 804d120:	8d 74 24 0c          	lea    0xc(%esp),%esi
 804d124:	56                   	push   %esi
 804d125:	e8 b6 f9 ff ff       	call   804cae0 
 804d12a:	8b 4c 24 60          	mov    0x60(%esp),%ecx
 804d12e:	8b 54 24 5c          	mov    0x5c(%esp),%edx
 804d132:	8b 44 24 50          	mov    0x50(%esp),%eax
 804d136:	89 34 24             	mov    %esi,(%esp)
 804d139:	e8 c2 f6 ff ff       	call   804c800 
 804d13e:	83 c4 44             	add    $0x44,%esp
 804d141:	5b                   	pop    %ebx
 804d142:	5e                   	pop    %esi
 804d143:	c3                   	ret    
 804d144:	8d b6 00 00 00 00    	lea    0x0(%esi),%esi
 804d14a:	8d bf 00 00 00 00    	lea    0x0(%edi),%edi
 804d150:	53                   	push   %ebx
 804d151:	e8 ea cd ff ff       	call   8049f40 
 804d156:	81 c3 aa 6e 00 00    	add    $0x6eaa,%ebx
 804d15c:	83 ec 14             	sub    $0x14,%esp
 804d15f:	6a ff                	push   $0xffffffff
 804d161:	ff 74 24 2c          	pushl  0x2c(%esp)
 804d165:	ff 74 24 2c          	pushl  0x2c(%esp)
 804d169:	ff 74 24 2c          	pushl  0x2c(%esp)
 804d16d:	ff 74 24 2c          	pushl  0x2c(%esp)
 804d171:	e8 1a ff ff ff       	call   804d090 
 804d176:	83 c4 28             	add    $0x28,%esp
 804d179:	5b                   	pop    %ebx
 804d17a:	c3                   	ret    
 804d17b:	90                   	nop
 804d17c:	8d 74 26 00          	lea    0x0(%esi,%eiz,1),%esi
 804d180:	53                   	push   %ebx
 804d181:	e8 ba cd ff ff       	call   8049f40 
 804d186:	81 c3 7a 6e 00 00    	add    $0x6e7a,%ebx
 804d18c:	83 ec 08             	sub    $0x8,%esp
 804d18f:	ff 74 24 18          	pushl  0x18(%esp)
 804d193:	ff 74 24 18          	pushl  0x18(%esp)
 804d197:	ff 74 24 18          	pushl  0x18(%esp)
 804d19b:	6a 00                	push   $0x0
 804d19d:	e8 ae ff ff ff       	call   804d150 
 804d1a2:	83 c4 18             	add    $0x18,%esp
 804d1a5:	5b                   	pop    %ebx
 804d1a6:	c3                   	ret    
 804d1a7:	89 f6                	mov    %esi,%esi
 804d1a9:	8d bc 27 00 00 00 00 	lea    0x0(%edi,%eiz,1),%edi
 804d1b0:	53                   	push   %ebx
 804d1b1:	e8 8a cd ff ff       	call   8049f40 
 804d1b6:	81 c3 4a 6e 00 00    	add    $0x6e4a,%ebx
 804d1bc:	83 ec 14             	sub    $0x14,%esp
 804d1bf:	ff 74 24 28          	pushl  0x28(%esp)
 804d1c3:	ff 74 24 28          	pushl  0x28(%esp)
 804d1c7:	ff 74 24 28          	pushl  0x28(%esp)
 804d1cb:	ff 74 24 28          	pushl  0x28(%esp)
 804d1cf:	6a 00                	push   $0x0
 804d1d1:	e8 ba fe ff ff       	call   804d090 
 804d1d6:	83 c4 28             	add    $0x28,%esp
 804d1d9:	5b                   	pop    %ebx
 804d1da:	c3                   	ret    
 804d1db:	90                   	nop
 804d1dc:	8d 74 26 00          	lea    0x0(%esi,%eiz,1),%esi
 804d1e0:	e8 aa 00 00 00       	call   804d28f 
 804d1e5:	81 c2 1b 6e 00 00    	add    $0x6e1b,%edx
 804d1eb:	8b 44 24 04          	mov    0x4(%esp),%eax
 804d1ef:	8b 4c 24 0c          	mov    0xc(%esp),%ecx
 804d1f3:	8d 92 40 01 00 00    	lea    0x140(%edx),%edx
 804d1f9:	89 54 24 04          	mov    %edx,0x4(%esp)
 804d1fd:	8b 54 24 08          	mov    0x8(%esp),%edx
 804d201:	e9 fa f5 ff ff       	jmp    804c800 
 804d206:	8d 76 00             	lea    0x0(%esi),%esi
 804d209:	8d bc 27 00 00 00 00 	lea    0x0(%edi,%eiz,1),%edi
 804d210:	53                   	push   %ebx
 804d211:	e8 2a cd ff ff       	call   8049f40 
 804d216:	81 c3 ea 6d 00 00    	add    $0x6dea,%ebx
 804d21c:	83 ec 0c             	sub    $0xc,%esp
 804d21f:	ff 74 24 18          	pushl  0x18(%esp)
 804d223:	ff 74 24 18          	pushl  0x18(%esp)
 804d227:	6a 00                	push   $0x0
 804d229:	e8 b2 ff ff ff       	call   804d1e0 
 804d22e:	83 c4 18             	add    $0x18,%esp
 804d231:	5b                   	pop    %ebx
 804d232:	c3                   	ret    
 804d233:	8d b6 00 00 00 00    	lea    0x0(%esi),%esi
 804d239:	8d bc 27 00 00 00 00 	lea    0x0(%edi,%eiz,1),%edi
 804d240:	53                   	push   %ebx
 804d241:	e8 fa cc ff ff       	call   8049f40 
 804d246:	81 c3 ba 6d 00 00    	add    $0x6dba,%ebx
 804d24c:	83 ec 0c             	sub    $0xc,%esp
 804d24f:	6a ff                	push   $0xffffffff
 804d251:	ff 74 24 1c          	pushl  0x1c(%esp)
 804d255:	ff 74 24 1c          	pushl  0x1c(%esp)
 804d259:	e8 82 ff ff ff       	call   804d1e0 
 804d25e:	83 c4 18             	add    $0x18,%esp
 804d261:	5b                   	pop    %ebx
 804d262:	c3                   	ret    
 804d263:	8d b6 00 00 00 00    	lea    0x0(%esi),%esi
 804d269:	8d bc 27 00 00 00 00 	lea    0x0(%edi,%eiz,1),%edi
 804d270:	53                   	push   %ebx
 804d271:	e8 ca cc ff ff       	call   8049f40 
 804d276:	81 c3 8a 6d 00 00    	add    $0x6d8a,%ebx
 804d27c:	83 ec 10             	sub    $0x10,%esp
 804d27f:	ff 74 24 18          	pushl  0x18(%esp)
 804d283:	6a 00                	push   $0x0
 804d285:	e8 b6 ff ff ff       	call   804d240 
 804d28a:	83 c4 18             	add    $0x18,%esp
 804d28d:	5b                   	pop    %ebx
 804d28e:	c3                   	ret    
 804d28f:	8b 14 24             	mov    (%esp),%edx
 804d292:	c3                   	ret    
 804d293:	8b 34 24             	mov    (%esp),%esi
 804d296:	c3                   	ret    
 804d297:	66 90                	xchg   %ax,%ax
 804d299:	66 90                	xchg   %ax,%ax
 804d29b:	66 90                	xchg   %ax,%ax
 804d29d:	66 90                	xchg   %ax,%ax
 804d29f:	90                   	nop
 804d2a0:	55                   	push   %ebp
 804d2a1:	57                   	push   %edi
 804d2a2:	56                   	push   %esi
 804d2a3:	53                   	push   %ebx
 804d2a4:	89 c6                	mov    %eax,%esi
 804d2a6:	e8 95 cc ff ff       	call   8049f40 
 804d2ab:	81 c3 55 6d 00 00    	add    $0x6d55,%ebx
 804d2b1:	83 ec 1c             	sub    $0x1c,%esp
 804d2b4:	8b 50 18             	mov    0x18(%eax),%edx
 804d2b7:	8b 68 14             	mov    0x14(%eax),%ebp
 804d2ba:	89 d7                	mov    %edx,%edi
 804d2bc:	29 ef                	sub    %ebp,%edi
 804d2be:	39 ea                	cmp    %ebp,%edx
 804d2c0:	8d 47 ff             	lea    -0x1(%edi),%eax
 804d2c3:	89 44 24 08          	mov    %eax,0x8(%esp)
 804d2c7:	0f 84 93 00 00 00    	je     804d360 
 804d2cd:	8b 46 24             	mov    0x24(%esi),%eax
 804d2d0:	8b 4e 10             	mov    0x10(%esi),%ecx
 804d2d3:	01 c2                	add    %eax,%edx
 804d2d5:	f7 d0                	not    %eax
 804d2d7:	21 d0                	and    %edx,%eax
 804d2d9:	8b 56 1c             	mov    0x1c(%esi),%edx
 804d2dc:	89 c7                	mov    %eax,%edi
 804d2de:	89 46 18             	mov    %eax,0x18(%esi)
 804d2e1:	29 cf                	sub    %ecx,%edi
 804d2e3:	89 7c 24 0c          	mov    %edi,0xc(%esp)
 804d2e7:	89 d7                	mov    %edx,%edi
 804d2e9:	29 cf                	sub    %ecx,%edi
 804d2eb:	39 7c 24 0c          	cmp    %edi,0xc(%esp)
 804d2ef:	76 05                	jbe    804d2f6 
 804d2f1:	89 56 18             	mov    %edx,0x18(%esi)
 804d2f4:	89 d0                	mov    %edx,%eax
 804d2f6:	89 46 14             	mov    %eax,0x14(%esi)
 804d2f9:	8b 56 44             	mov    0x44(%esi),%edx
 804d2fc:	8b 46 48             	mov    0x48(%esi),%eax
 804d2ff:	29 d0                	sub    %edx,%eax
 804d301:	83 f8 03             	cmp    $0x3,%eax
 804d304:	76 42                	jbe    804d348 
 804d306:	89 2a                	mov    %ebp,(%edx)
 804d308:	8b 56 70             	mov    0x70(%esi),%edx
 804d30b:	8b 46 74             	mov    0x74(%esi),%eax
 804d30e:	83 46 44 04          	addl   $0x4,0x44(%esi)
 804d312:	29 d0                	sub    %edx,%eax
 804d314:	83 f8 03             	cmp    $0x3,%eax
 804d317:	77 14                	ja     804d32d 
 804d319:	8d 46 64             	lea    0x64(%esi),%eax
 804d31c:	83 ec 08             	sub    $0x8,%esp
 804d31f:	6a 04                	push   $0x4
 804d321:	50                   	push   %eax
 804d322:	e8 d9 0e 00 00       	call   804e200 
 804d327:	8b 56 70             	mov    0x70(%esi),%edx
 804d32a:	83 c4 10             	add    $0x10,%esp
 804d32d:	8b 44 24 08          	mov    0x8(%esp),%eax
 804d331:	89 02                	mov    %eax,(%edx)
 804d333:	83 46 70 04          	addl   $0x4,0x70(%esi)
 804d337:	83 06 01             	addl   $0x1,(%esi)
 804d33a:	83 c4 1c             	add    $0x1c,%esp
 804d33d:	5b                   	pop    %ebx
 804d33e:	5e                   	pop    %esi
 804d33f:	5f                   	pop    %edi
 804d340:	5d                   	pop    %ebp
 804d341:	c3                   	ret    
 804d342:	8d b6 00 00 00 00    	lea    0x0(%esi),%esi
 804d348:	8d 46 38             	lea    0x38(%esi),%eax
 804d34b:	83 ec 08             	sub    $0x8,%esp
 804d34e:	6a 04                	push   $0x4
 804d350:	50                   	push   %eax
 804d351:	e8 aa 0e 00 00       	call   804e200 
 804d356:	8b 56 44             	mov    0x44(%esi),%edx
 804d359:	83 c4 10             	add    $0x10,%esp
 804d35c:	eb a8                	jmp    804d306 
 804d35e:	66 90                	xchg   %ax,%ax
 804d360:	80 4e 34 02          	orb    $0x2,0x34(%esi)
 804d364:	e9 64 ff ff ff       	jmp    804d2cd 
 804d369:	8d b4 26 00 00 00 00 	lea    0x0(%esi,%eiz,1),%esi
 804d370:	55                   	push   %ebp
 804d371:	57                   	push   %edi
 804d372:	56                   	push   %esi
 804d373:	53                   	push   %ebx
 804d374:	e8 c7 cb ff ff       	call   8049f40 
 804d379:	81 c3 87 6c 00 00    	add    $0x6c87,%ebx
 804d37f:	83 ec 18             	sub    $0x18,%esp
 804d382:	8b 74 24 2c          	mov    0x2c(%esp),%esi
 804d386:	8b ab b8 ff ff ff    	mov    -0x48(%ebx),%ebp
 804d38c:	8b bb c4 ff ff ff    	mov    -0x3c(%ebx),%edi
 804d392:	8d 46 0c             	lea    0xc(%esi),%eax
 804d395:	c7 06 00 00 00 00    	movl   $0x0,(%esi)
 804d39b:	c7 46 04 00 00 00 00 	movl   $0x0,0x4(%esi)
 804d3a2:	c7 46 08 00 00 00 00 	movl   $0x0,0x8(%esi)
 804d3a9:	55                   	push   %ebp
 804d3aa:	57                   	push   %edi
 804d3ab:	6a 00                	push   $0x0
 804d3ad:	6a 00                	push   $0x0
 804d3af:	50                   	push   %eax
 804d3b0:	e8 eb 0d 00 00       	call   804e1a0 
 804d3b5:	8d 46 38             	lea    0x38(%esi),%eax
 804d3b8:	83 c4 14             	add    $0x14,%esp
 804d3bb:	83 c6 64             	add    $0x64,%esi
 804d3be:	55                   	push   %ebp
 804d3bf:	57                   	push   %edi
 804d3c0:	6a 00                	push   $0x0
 804d3c2:	6a 00                	push   $0x0
 804d3c4:	50                   	push   %eax
 804d3c5:	e8 d6 0d 00 00       	call   804e1a0 
 804d3ca:	83 c4 14             	add    $0x14,%esp
 804d3cd:	55                   	push   %ebp
 804d3ce:	57                   	push   %edi
 804d3cf:	6a 00                	push   $0x0
 804d3d1:	6a 00                	push   $0x0
 804d3d3:	56                   	push   %esi
 804d3d4:	e8 c7 0d 00 00       	call   804e1a0 
 804d3d9:	83 c4 2c             	add    $0x2c,%esp
 804d3dc:	5b                   	pop    %ebx
 804d3dd:	5e                   	pop    %esi
 804d3de:	5f                   	pop    %edi
 804d3df:	5d                   	pop    %ebp
 804d3e0:	c3                   	ret    
 804d3e1:	eb 0d                	jmp    804d3f0 
 804d3e3:	90                   	nop
 804d3e4:	90                   	nop
 804d3e5:	90                   	nop
 804d3e6:	90                   	nop
 804d3e7:	90                   	nop
 804d3e8:	90                   	nop
 804d3e9:	90                   	nop
 804d3ea:	90                   	nop
 804d3eb:	90                   	nop
 804d3ec:	90                   	nop
 804d3ed:	90                   	nop
 804d3ee:	90                   	nop
 804d3ef:	90                   	nop
 804d3f0:	56                   	push   %esi
 804d3f1:	53                   	push   %ebx
 804d3f2:	e8 49 cb ff ff       	call   8049f40 
 804d3f7:	81 c3 09 6c 00 00    	add    $0x6c09,%ebx
 804d3fd:	83 ec 0c             	sub    $0xc,%esp
 804d400:	8b 74 24 18          	mov    0x18(%esp),%esi
 804d404:	6a 00                	push   $0x0
 804d406:	8d 46 0c             	lea    0xc(%esi),%eax
 804d409:	50                   	push   %eax
 804d40a:	e8 41 0f 00 00       	call   804e350 
 804d40f:	58                   	pop    %eax
 804d410:	8d 46 38             	lea    0x38(%esi),%eax
 804d413:	83 c6 64             	add    $0x64,%esi
 804d416:	5a                   	pop    %edx
 804d417:	6a 00                	push   $0x0
 804d419:	50                   	push   %eax
 804d41a:	e8 31 0f 00 00       	call   804e350 
 804d41f:	59                   	pop    %ecx
 804d420:	58                   	pop    %eax
 804d421:	6a 00                	push   $0x0
 804d423:	56                   	push   %esi
 804d424:	e8 27 0f 00 00       	call   804e350 
 804d429:	83 c4 14             	add    $0x14,%esp
 804d42c:	5b                   	pop    %ebx
 804d42d:	5e                   	pop    %esi
 804d42e:	c3                   	ret    
 804d42f:	90                   	nop
 804d430:	55                   	push   %ebp
 804d431:	57                   	push   %edi
 804d432:	56                   	push   %esi
 804d433:	53                   	push   %ebx
 804d434:	e8 07 cb ff ff       	call   8049f40 
 804d439:	81 c3 c7 6b 00 00    	add    $0x6bc7,%ebx
 804d43f:	83 ec 1c             	sub    $0x1c,%esp
 804d442:	8b 74 24 34          	mov    0x34(%esp),%esi
 804d446:	8b 7c 24 30          	mov    0x30(%esp),%edi
 804d44a:	8d 6e 0c             	lea    0xc(%esi),%ebp
 804d44d:	eb 0d                	jmp    804d45c 
 804d44f:	90                   	nop
 804d450:	8d 4a 01             	lea    0x1(%edx),%ecx
 804d453:	85 c0                	test   %eax,%eax
 804d455:	89 4e 18             	mov    %ecx,0x18(%esi)
 804d458:	88 02                	mov    %al,(%edx)
 804d45a:	74 44                	je     804d4a0 
 804d45c:	83 ec 0c             	sub    $0xc,%esp
 804d45f:	57                   	push   %edi
 804d460:	e8 6b be ff ff       	call   80492d0 
 804d465:	83 c4 10             	add    $0x10,%esp
 804d468:	83 f8 ff             	cmp    $0xffffffff,%eax
 804d46b:	74 43                	je     804d4b0 
 804d46d:	8b 56 18             	mov    0x18(%esi),%edx
 804d470:	39 56 1c             	cmp    %edx,0x1c(%esi)
 804d473:	75 db                	jne    804d450 
 804d475:	89 44 24 0c          	mov    %eax,0xc(%esp)
 804d479:	83 ec 08             	sub    $0x8,%esp
 804d47c:	6a 01                	push   $0x1
 804d47e:	55                   	push   %ebp
 804d47f:	e8 7c 0d 00 00       	call   804e200 
 804d484:	8b 56 18             	mov    0x18(%esi),%edx
 804d487:	83 c4 10             	add    $0x10,%esp
 804d48a:	8b 44 24 0c          	mov    0xc(%esp),%eax
 804d48e:	8d 4a 01             	lea    0x1(%edx),%ecx
 804d491:	85 c0                	test   %eax,%eax
 804d493:	89 4e 18             	mov    %ecx,0x18(%esi)
 804d496:	88 02                	mov    %al,(%edx)
 804d498:	75 c2                	jne    804d45c 
 804d49a:	8d b6 00 00 00 00    	lea    0x0(%esi),%esi
 804d4a0:	89 f0                	mov    %esi,%eax
 804d4a2:	e8 f9 fd ff ff       	call   804d2a0 
 804d4a7:	eb b3                	jmp    804d45c 
 804d4a9:	8d b4 26 00 00 00 00 	lea    0x0(%esi,%eiz,1),%esi
 804d4b0:	8b 46 18             	mov    0x18(%esi),%eax
 804d4b3:	39 46 14             	cmp    %eax,0x14(%esi)
 804d4b6:	89 7c 24 30          	mov    %edi,0x30(%esp)
 804d4ba:	74 19                	je     804d4d5 
 804d4bc:	39 46 1c             	cmp    %eax,0x1c(%esi)
 804d4bf:	0f 84 ee 00 00 00    	je     804d5b3 
 804d4c5:	8d 50 01             	lea    0x1(%eax),%edx
 804d4c8:	89 56 18             	mov    %edx,0x18(%esi)
 804d4cb:	c6 00 00             	movb   $0x0,(%eax)
 804d4ce:	89 f0                	mov    %esi,%eax
 804d4d0:	e8 cb fd ff ff       	call   804d2a0 
 804d4d5:	8b 56 44             	mov    0x44(%esi),%edx
 804d4d8:	8b 46 48             	mov    0x48(%esi),%eax
 804d4db:	29 d0                	sub    %edx,%eax
 804d4dd:	83 f8 03             	cmp    $0x3,%eax
 804d4e0:	0f 86 a2 00 00 00    	jbe    804d588 
 804d4e6:	c7 02 00 00 00 00    	movl   $0x0,(%edx)
 804d4ec:	8b 46 44             	mov    0x44(%esi),%eax
 804d4ef:	8d 48 04             	lea    0x4(%eax),%ecx
 804d4f2:	8b 46 40             	mov    0x40(%esi),%eax
 804d4f5:	89 4e 44             	mov    %ecx,0x44(%esi)
 804d4f8:	39 c1                	cmp    %eax,%ecx
 804d4fa:	89 44 24 0c          	mov    %eax,0xc(%esp)
 804d4fe:	0f 84 a6 00 00 00    	je     804d5aa 
 804d504:	8b 46 50             	mov    0x50(%esi),%eax
 804d507:	8b 6e 3c             	mov    0x3c(%esi),%ebp
 804d50a:	01 c1                	add    %eax,%ecx
 804d50c:	f7 d0                	not    %eax
 804d50e:	21 c8                	and    %ecx,%eax
 804d510:	8b 4e 48             	mov    0x48(%esi),%ecx
 804d513:	89 c7                	mov    %eax,%edi
 804d515:	89 46 44             	mov    %eax,0x44(%esi)
 804d518:	29 ef                	sub    %ebp,%edi
 804d51a:	89 ca                	mov    %ecx,%edx
 804d51c:	29 ea                	sub    %ebp,%edx
 804d51e:	39 d7                	cmp    %edx,%edi
 804d520:	76 05                	jbe    804d527 
 804d522:	89 4e 44             	mov    %ecx,0x44(%esi)
 804d525:	89 c8                	mov    %ecx,%eax
 804d527:	89 46 40             	mov    %eax,0x40(%esi)
 804d52a:	8b 44 24 0c          	mov    0xc(%esp),%eax
 804d52e:	8b 7e 6c             	mov    0x6c(%esi),%edi
 804d531:	89 46 04             	mov    %eax,0x4(%esi)
 804d534:	8b 46 70             	mov    0x70(%esi),%eax
 804d537:	89 7c 24 0c          	mov    %edi,0xc(%esp)
 804d53b:	39 c7                	cmp    %eax,%edi
 804d53d:	74 62                	je     804d5a1 
 804d53f:	8b 56 7c             	mov    0x7c(%esi),%edx
 804d542:	8b 6e 68             	mov    0x68(%esi),%ebp
 804d545:	01 d0                	add    %edx,%eax
 804d547:	f7 d2                	not    %edx
 804d549:	21 d0                	and    %edx,%eax
 804d54b:	8b 56 74             	mov    0x74(%esi),%edx
 804d54e:	89 c7                	mov    %eax,%edi
 804d550:	89 46 70             	mov    %eax,0x70(%esi)
 804d553:	29 ef                	sub    %ebp,%edi
 804d555:	89 d1                	mov    %edx,%ecx
 804d557:	29 e9                	sub    %ebp,%ecx
 804d559:	39 cf                	cmp    %ecx,%edi
 804d55b:	76 05                	jbe    804d562 
 804d55d:	89 56 70             	mov    %edx,0x70(%esi)
 804d560:	89 d0                	mov    %edx,%eax
 804d562:	89 46 6c             	mov    %eax,0x6c(%esi)
 804d565:	8b 44 24 0c          	mov    0xc(%esp),%eax
 804d569:	83 ec 0c             	sub    $0xc,%esp
 804d56c:	89 46 08             	mov    %eax,0x8(%esi)
 804d56f:	ff 74 24 3c          	pushl  0x3c(%esp)
 804d573:	e8 c8 ba ff ff       	call   8049040 
 804d578:	85 c0                	test   %eax,%eax
 804d57a:	0f 94 c0             	sete   %al
 804d57d:	83 c4 2c             	add    $0x2c,%esp
 804d580:	5b                   	pop    %ebx
 804d581:	5e                   	pop    %esi
 804d582:	5f                   	pop    %edi
 804d583:	5d                   	pop    %ebp
 804d584:	c3                   	ret    
 804d585:	8d 76 00             	lea    0x0(%esi),%esi
 804d588:	8d 46 38             	lea    0x38(%esi),%eax
 804d58b:	83 ec 08             	sub    $0x8,%esp
 804d58e:	6a 04                	push   $0x4
 804d590:	50                   	push   %eax
 804d591:	e8 6a 0c 00 00       	call   804e200 
 804d596:	8b 56 44             	mov    0x44(%esi),%edx
 804d599:	83 c4 10             	add    $0x10,%esp
 804d59c:	e9 45 ff ff ff       	jmp    804d4e6 
 804d5a1:	80 8e 8c 00 00 00 02 	orb    $0x2,0x8c(%esi)
 804d5a8:	eb 95                	jmp    804d53f 
 804d5aa:	80 4e 60 02          	orb    $0x2,0x60(%esi)
 804d5ae:	e9 51 ff ff ff       	jmp    804d504 
 804d5b3:	8d 46 0c             	lea    0xc(%esi),%eax
 804d5b6:	83 ec 08             	sub    $0x8,%esp
 804d5b9:	6a 01                	push   $0x1
 804d5bb:	50                   	push   %eax
 804d5bc:	e8 3f 0c 00 00       	call   804e200 
 804d5c1:	8b 46 18             	mov    0x18(%esi),%eax
 804d5c4:	83 c4 10             	add    $0x10,%esp
 804d5c7:	e9 f9 fe ff ff       	jmp    804d4c5 
 804d5cc:	66 90                	xchg   %ax,%ax
 804d5ce:	66 90                	xchg   %ax,%ax
 804d5d0:	55                   	push   %ebp
 804d5d1:	57                   	push   %edi
 804d5d2:	56                   	push   %esi
 804d5d3:	53                   	push   %ebx
 804d5d4:	e8 67 c9 ff ff       	call   8049f40 
 804d5d9:	81 c3 27 6a 00 00    	add    $0x6a27,%ebx
 804d5df:	83 ec 0c             	sub    $0xc,%esp
 804d5e2:	8b 6c 24 20          	mov    0x20(%esp),%ebp
 804d5e6:	8b 74 24 28          	mov    0x28(%esp),%esi
 804d5ea:	8d b6 00 00 00 00    	lea    0x0(%esi),%esi
 804d5f0:	83 ec 04             	sub    $0x4,%esp
 804d5f3:	56                   	push   %esi
 804d5f4:	ff 74 24 2c          	pushl  0x2c(%esp)
 804d5f8:	55                   	push   %ebp
 804d5f9:	e8 d2 b9 ff ff       	call   8048fd0 
 804d5fe:	83 c4 10             	add    $0x10,%esp
 804d601:	85 c0                	test   %eax,%eax
 804d603:	89 c7                	mov    %eax,%edi
 804d605:	79 29                	jns    804d630 
 804d607:	e8 94 bc ff ff       	call   80492a0 
 804d60c:	8b 00                	mov    (%eax),%eax
 804d60e:	83 f8 04             	cmp    $0x4,%eax
 804d611:	74 dd                	je     804d5f0 
 804d613:	83 f8 16             	cmp    $0x16,%eax
 804d616:	75 18                	jne    804d630 
 804d618:	81 fe 00 e0 ff 7f    	cmp    $0x7fffe000,%esi
 804d61e:	76 10                	jbe    804d630 
 804d620:	be 00 e0 ff 7f       	mov    $0x7fffe000,%esi
 804d625:	eb c9                	jmp    804d5f0 
 804d627:	89 f6                	mov    %esi,%esi
 804d629:	8d bc 27 00 00 00 00 	lea    0x0(%edi,%eiz,1),%edi
 804d630:	83 c4 0c             	add    $0xc,%esp
 804d633:	89 f8                	mov    %edi,%eax
 804d635:	5b                   	pop    %ebx
 804d636:	5e                   	pop    %esi
 804d637:	5f                   	pop    %edi
 804d638:	5d                   	pop    %ebp
 804d639:	c3                   	ret    
 804d63a:	66 90                	xchg   %ax,%ax
 804d63c:	66 90                	xchg   %ax,%ax
 804d63e:	66 90                	xchg   %ax,%ax
 804d640:	55                   	push   %ebp
 804d641:	57                   	push   %edi
 804d642:	56                   	push   %esi
 804d643:	53                   	push   %ebx
 804d644:	e8 f7 c8 ff ff       	call   8049f40 
 804d649:	81 c3 b7 69 00 00    	add    $0x69b7,%ebx
 804d64f:	83 ec 2c             	sub    $0x2c,%esp
 804d652:	8b 44 24 44          	mov    0x44(%esp),%eax
 804d656:	8b 6c 24 40          	mov    0x40(%esp),%ebp
 804d65a:	8b 74 24 50          	mov    0x50(%esp),%esi
 804d65e:	8b 7c 24 54          	mov    0x54(%esp),%edi
 804d662:	85 c0                	test   %eax,%eax
 804d664:	0f 84 46 03 00 00    	je     804d9b0 
 804d66a:	83 ec 08             	sub    $0x8,%esp
 804d66d:	ff 74 24 54          	pushl  0x54(%esp)
 804d671:	ff 74 24 54          	pushl  0x54(%esp)
 804d675:	50                   	push   %eax
 804d676:	8d 83 68 b8 ff ff    	lea    -0x4798(%ebx),%eax
 804d67c:	50                   	push   %eax
 804d67d:	6a 01                	push   $0x1
 804d67f:	55                   	push   %ebp
 804d680:	e8 db bc ff ff       	call   8049360 
 804d685:	83 c4 20             	add    $0x20,%esp
 804d688:	8d 83 7b b8 ff ff    	lea    -0x4785(%ebx),%eax
 804d68e:	83 ec 04             	sub    $0x4,%esp
 804d691:	6a 05                	push   $0x5
 804d693:	50                   	push   %eax
 804d694:	6a 00                	push   $0x0
 804d696:	e8 e5 b9 ff ff       	call   8049080 
 804d69b:	c7 04 24 e0 07 00 00 	movl   $0x7e0,(%esp)
 804d6a2:	50                   	push   %eax
 804d6a3:	ff b3 d8 ff ff ff    	pushl  -0x28(%ebx)
 804d6a9:	6a 01                	push   $0x1
 804d6ab:	55                   	push   %ebp
 804d6ac:	e8 af bc ff ff       	call   8049360 
 804d6b1:	8d 83 04 b9 ff ff    	lea    -0x46fc(%ebx),%eax
 804d6b7:	83 c4 1c             	add    $0x1c,%esp
 804d6ba:	6a 05                	push   $0x5
 804d6bc:	50                   	push   %eax
 804d6bd:	6a 00                	push   $0x0
 804d6bf:	e8 bc b9 ff ff       	call   8049080 
 804d6c4:	5a                   	pop    %edx
 804d6c5:	59                   	pop    %ecx
 804d6c6:	55                   	push   %ebp
 804d6c7:	50                   	push   %eax
 804d6c8:	e8 43 bb ff ff       	call   8049210 
 804d6cd:	83 c4 10             	add    $0x10,%esp
 804d6d0:	83 ff 09             	cmp    $0x9,%edi
 804d6d3:	0f 87 f7 02 00 00    	ja     804d9d0 
 804d6d9:	8b 84 bb 48 bb ff ff 	mov    -0x44b8(%ebx,%edi,4),%eax
 804d6e0:	01 d8                	add    %ebx,%eax
 804d6e2:	ff e0                	jmp    *%eax
 804d6e4:	8d 74 26 00          	lea    0x0(%esi,%eiz,1),%esi
 804d6e8:	8b 56 1c             	mov    0x1c(%esi),%edx
 804d6eb:	8b 4e 14             	mov    0x14(%esi),%ecx
 804d6ee:	83 ec 04             	sub    $0x4,%esp
 804d6f1:	8b 46 18             	mov    0x18(%esi),%eax
 804d6f4:	8b 7e 08             	mov    0x8(%esi),%edi
 804d6f7:	89 54 24 1c          	mov    %edx,0x1c(%esp)
 804d6fb:	89 4c 24 18          	mov    %ecx,0x18(%esp)
 804d6ff:	8b 56 0c             	mov    0xc(%esi),%edx
 804d702:	8b 4e 10             	mov    0x10(%esi),%ecx
 804d705:	89 44 24 08          	mov    %eax,0x8(%esp)
 804d709:	8d 83 68 ba ff ff    	lea    -0x4598(%ebx),%eax
 804d70f:	89 7c 24 14          	mov    %edi,0x14(%esp)
 804d713:	8b 7e 04             	mov    0x4(%esi),%edi
 804d716:	8b 36                	mov    (%esi),%esi
 804d718:	89 4c 24 0c          	mov    %ecx,0xc(%esp)
 804d71c:	89 54 24 10          	mov    %edx,0x10(%esp)
 804d720:	6a 05                	push   $0x5
 804d722:	50                   	push   %eax
 804d723:	6a 00                	push   $0x0
 804d725:	e8 56 b9 ff ff       	call   8049080 
 804d72a:	83 c4 0c             	add    $0xc,%esp
 804d72d:	8b 54 24 1c          	mov    0x1c(%esp),%edx
 804d731:	52                   	push   %edx
 804d732:	ff 74 24 0c          	pushl  0xc(%esp)
 804d736:	8b 4c 24 20          	mov    0x20(%esp),%ecx
 804d73a:	51                   	push   %ecx
 804d73b:	ff 74 24 18          	pushl  0x18(%esp)
 804d73f:	ff 74 24 20          	pushl  0x20(%esp)
 804d743:	ff 74 24 28          	pushl  0x28(%esp)
 804d747:	57                   	push   %edi
 804d748:	56                   	push   %esi
 804d749:	50                   	push   %eax
 804d74a:	6a 01                	push   $0x1
 804d74c:	55                   	push   %ebp
 804d74d:	e8 0e bc ff ff       	call   8049360 
 804d752:	83 c4 30             	add    $0x30,%esp
 804d755:	83 c4 2c             	add    $0x2c,%esp
 804d758:	5b                   	pop    %ebx
 804d759:	5e                   	pop    %esi
 804d75a:	5f                   	pop    %edi
 804d75b:	5d                   	pop    %ebp
 804d75c:	c3                   	ret    
 804d75d:	8d 76 00             	lea    0x0(%esi),%esi
 804d760:	8b 56 20             	mov    0x20(%esi),%edx
 804d763:	8b 46 1c             	mov    0x1c(%esi),%eax
 804d766:	83 ec 04             	sub    $0x4,%esp
 804d769:	8b 4e 18             	mov    0x18(%esi),%ecx
 804d76c:	8b 7e 0c             	mov    0xc(%esi),%edi
 804d76f:	89 54 24 20          	mov    %edx,0x20(%esp)
 804d773:	89 44 24 08          	mov    %eax,0x8(%esp)
 804d777:	89 4c 24 1c          	mov    %ecx,0x1c(%esp)
 804d77b:	8b 46 08             	mov    0x8(%esi),%eax
 804d77e:	8b 4e 14             	mov    0x14(%esi),%ecx
 804d781:	8b 56 10             	mov    0x10(%esi),%edx
 804d784:	89 7c 24 14          	mov    %edi,0x14(%esp)
 804d788:	8b 7e 04             	mov    0x4(%esi),%edi
 804d78b:	89 44 24 18          	mov    %eax,0x18(%esp)
 804d78f:	8b 36                	mov    (%esi),%esi
 804d791:	8d 83 98 ba ff ff    	lea    -0x4568(%ebx),%eax
 804d797:	89 4c 24 0c          	mov    %ecx,0xc(%esp)
 804d79b:	89 54 24 10          	mov    %edx,0x10(%esp)
 804d79f:	6a 05                	push   $0x5
 804d7a1:	50                   	push   %eax
 804d7a2:	6a 00                	push   $0x0
 804d7a4:	e8 d7 b8 ff ff       	call   8049080 
 804d7a9:	8b 54 24 2c          	mov    0x2c(%esp),%edx
 804d7ad:	52                   	push   %edx
 804d7ae:	ff 74 24 18          	pushl  0x18(%esp)
 804d7b2:	8b 4c 24 30          	mov    0x30(%esp),%ecx
 804d7b6:	51                   	push   %ecx
 804d7b7:	ff 74 24 24          	pushl  0x24(%esp)
 804d7bb:	ff 74 24 2c          	pushl  0x2c(%esp)
 804d7bf:	ff 74 24 34          	pushl  0x34(%esp)
 804d7c3:	ff 74 24 3c          	pushl  0x3c(%esp)
 804d7c7:	57                   	push   %edi
 804d7c8:	56                   	push   %esi
 804d7c9:	50                   	push   %eax
 804d7ca:	6a 01                	push   $0x1
 804d7cc:	55                   	push   %ebp
 804d7cd:	e8 8e bb ff ff       	call   8049360 
 804d7d2:	83 c4 40             	add    $0x40,%esp
 804d7d5:	83 c4 2c             	add    $0x2c,%esp
 804d7d8:	5b                   	pop    %ebx
 804d7d9:	5e                   	pop    %esi
 804d7da:	5f                   	pop    %edi
 804d7db:	5d                   	pop    %ebp
 804d7dc:	c3                   	ret    
 804d7dd:	8d 76 00             	lea    0x0(%esi),%esi
 804d7e0:	e8 bb bb ff ff       	call   80493a0 
 804d7e5:	8d 76 00             	lea    0x0(%esi),%esi
 804d7e8:	8d 83 7f b8 ff ff    	lea    -0x4781(%ebx),%eax
 804d7ee:	83 ec 04             	sub    $0x4,%esp
 804d7f1:	8b 36                	mov    (%esi),%esi
 804d7f3:	6a 05                	push   $0x5
 804d7f5:	50                   	push   %eax
 804d7f6:	6a 00                	push   $0x0
 804d7f8:	e8 83 b8 ff ff       	call   8049080 
 804d7fd:	56                   	push   %esi
 804d7fe:	50                   	push   %eax
 804d7ff:	6a 01                	push   $0x1
 804d801:	55                   	push   %ebp
 804d802:	e8 59 bb ff ff       	call   8049360 
 804d807:	83 c4 20             	add    $0x20,%esp
 804d80a:	e9 46 ff ff ff       	jmp    804d755 
 804d80f:	90                   	nop
 804d810:	8d 83 8f b8 ff ff    	lea    -0x4771(%ebx),%eax
 804d816:	8b 7e 04             	mov    0x4(%esi),%edi
 804d819:	83 ec 04             	sub    $0x4,%esp
 804d81c:	8b 36                	mov    (%esi),%esi
 804d81e:	6a 05                	push   $0x5
 804d820:	50                   	push   %eax
 804d821:	6a 00                	push   $0x0
 804d823:	e8 58 b8 ff ff       	call   8049080 
 804d828:	89 3c 24             	mov    %edi,(%esp)
 804d82b:	56                   	push   %esi
 804d82c:	50                   	push   %eax
 804d82d:	6a 01                	push   $0x1
 804d82f:	55                   	push   %ebp
 804d830:	e8 2b bb ff ff       	call   8049360 
 804d835:	83 c4 20             	add    $0x20,%esp
 804d838:	83 c4 2c             	add    $0x2c,%esp
 804d83b:	5b                   	pop    %ebx
 804d83c:	5e                   	pop    %esi
 804d83d:	5f                   	pop    %edi
 804d83e:	5d                   	pop    %ebp
 804d83f:	c3                   	ret    
 804d840:	8b 56 08             	mov    0x8(%esi),%edx
 804d843:	8d 83 a6 b8 ff ff    	lea    -0x475a(%ebx),%eax
 804d849:	83 ec 04             	sub    $0x4,%esp
 804d84c:	8b 7e 04             	mov    0x4(%esi),%edi
 804d84f:	8b 36                	mov    (%esi),%esi
 804d851:	89 54 24 08          	mov    %edx,0x8(%esp)
 804d855:	6a 05                	push   $0x5
 804d857:	50                   	push   %eax
 804d858:	6a 00                	push   $0x0
 804d85a:	e8 21 b8 ff ff       	call   8049080 
 804d85f:	5a                   	pop    %edx
 804d860:	59                   	pop    %ecx
 804d861:	8b 54 24 0c          	mov    0xc(%esp),%edx
 804d865:	52                   	push   %edx
 804d866:	57                   	push   %edi
 804d867:	eb c2                	jmp    804d82b 
 804d869:	8d b4 26 00 00 00 00 	lea    0x0(%esi,%eiz,1),%esi
 804d870:	8b 56 0c             	mov    0xc(%esi),%edx
 804d873:	8b 4e 08             	mov    0x8(%esi),%ecx
 804d876:	8d 83 d0 b9 ff ff    	lea    -0x4630(%ebx),%eax
 804d87c:	83 ec 04             	sub    $0x4,%esp
 804d87f:	8b 7e 04             	mov    0x4(%esi),%edi
 804d882:	8b 36                	mov    (%esi),%esi
 804d884:	89 54 24 0c          	mov    %edx,0xc(%esp)
 804d888:	89 4c 24 08          	mov    %ecx,0x8(%esp)
 804d88c:	6a 05                	push   $0x5
 804d88e:	50                   	push   %eax
 804d88f:	6a 00                	push   $0x0
 804d891:	e8 ea b7 ff ff       	call   8049080 
 804d896:	83 c4 0c             	add    $0xc,%esp
 804d899:	8b 54 24 0c          	mov    0xc(%esp),%edx
 804d89d:	52                   	push   %edx
 804d89e:	8b 4c 24 0c          	mov    0xc(%esp),%ecx
 804d8a2:	51                   	push   %ecx
 804d8a3:	57                   	push   %edi
 804d8a4:	eb 85                	jmp    804d82b 
 804d8a6:	8d 76 00             	lea    0x0(%esi),%esi
 804d8a9:	8d bc 27 00 00 00 00 	lea    0x0(%edi,%eiz,1),%edi
 804d8b0:	8b 46 08             	mov    0x8(%esi),%eax
 804d8b3:	8b 4e 10             	mov    0x10(%esi),%ecx
 804d8b6:	83 ec 04             	sub    $0x4,%esp
 804d8b9:	8b 56 0c             	mov    0xc(%esi),%edx
 804d8bc:	8b 7e 04             	mov    0x4(%esi),%edi
 804d8bf:	8b 36                	mov    (%esi),%esi
 804d8c1:	89 44 24 08          	mov    %eax,0x8(%esp)
 804d8c5:	8d 83 f0 b9 ff ff    	lea    -0x4610(%ebx),%eax
 804d8cb:	89 4c 24 10          	mov    %ecx,0x10(%esp)
 804d8cf:	89 54 24 0c          	mov    %edx,0xc(%esp)
 804d8d3:	6a 05                	push   $0x5
 804d8d5:	50                   	push   %eax
 804d8d6:	6a 00                	push   $0x0
 804d8d8:	e8 a3 b7 ff ff       	call   8049080 
 804d8dd:	8b 4c 24 1c          	mov    0x1c(%esp),%ecx
 804d8e1:	51                   	push   %ecx
 804d8e2:	8b 54 24 1c          	mov    0x1c(%esp),%edx
 804d8e6:	52                   	push   %edx
 804d8e7:	ff 74 24 1c          	pushl  0x1c(%esp)
 804d8eb:	57                   	push   %edi
 804d8ec:	56                   	push   %esi
 804d8ed:	50                   	push   %eax
 804d8ee:	6a 01                	push   $0x1
 804d8f0:	55                   	push   %ebp
 804d8f1:	e8 6a ba ff ff       	call   8049360 
 804d8f6:	83 c4 30             	add    $0x30,%esp
 804d8f9:	e9 57 fe ff ff       	jmp    804d755 
 804d8fe:	66 90                	xchg   %ax,%ax
 804d900:	8b 4e 08             	mov    0x8(%esi),%ecx
 804d903:	8b 46 10             	mov    0x10(%esi),%eax
 804d906:	83 ec 04             	sub    $0x4,%esp
 804d909:	8b 56 14             	mov    0x14(%esi),%edx
 804d90c:	8b 7e 0c             	mov    0xc(%esi),%edi
 804d90f:	89 4c 24 10          	mov    %ecx,0x10(%esp)
 804d913:	8b 4e 04             	mov    0x4(%esi),%ecx
 804d916:	89 44 24 08          	mov    %eax,0x8(%esp)
 804d91a:	8d 83 14 ba ff ff    	lea    -0x45ec(%ebx),%eax
 804d920:	89 54 24 14          	mov    %edx,0x14(%esp)
 804d924:	8b 36                	mov    (%esi),%esi
 804d926:	89 4c 24 0c          	mov    %ecx,0xc(%esp)
 804d92a:	6a 05                	push   $0x5
 804d92c:	50                   	push   %eax
 804d92d:	6a 00                	push   $0x0
 804d92f:	e8 4c b7 ff ff       	call   8049080 
 804d934:	8b 54 24 20          	mov    0x20(%esp),%edx
 804d938:	89 14 24             	mov    %edx,(%esp)
 804d93b:	ff 74 24 14          	pushl  0x14(%esp)
 804d93f:	57                   	push   %edi
 804d940:	8b 4c 24 24          	mov    0x24(%esp),%ecx
 804d944:	51                   	push   %ecx
 804d945:	ff 74 24 24          	pushl  0x24(%esp)
 804d949:	e9 fa fd ff ff       	jmp    804d748 
 804d94e:	66 90                	xchg   %ax,%ax
 804d950:	8b 56 18             	mov    0x18(%esi),%edx
 804d953:	8b 4e 10             	mov    0x10(%esi),%ecx
 804d956:	83 ec 04             	sub    $0x4,%esp
 804d959:	8b 46 14             	mov    0x14(%esi),%eax
 804d95c:	8b 7e 04             	mov    0x4(%esi),%edi
 804d95f:	89 54 24 18          	mov    %edx,0x18(%esp)
 804d963:	89 4c 24 14          	mov    %ecx,0x14(%esp)
 804d967:	8b 56 08             	mov    0x8(%esi),%edx
 804d96a:	8b 4e 0c             	mov    0xc(%esi),%ecx
 804d96d:	89 44 24 08          	mov    %eax,0x8(%esp)
 804d971:	8d 83 3c ba ff ff    	lea    -0x45c4(%ebx),%eax
 804d977:	8b 36                	mov    (%esi),%esi
 804d979:	89 4c 24 0c          	mov    %ecx,0xc(%esp)
 804d97d:	89 54 24 10          	mov    %edx,0x10(%esp)
 804d981:	6a 05                	push   $0x5
 804d983:	50                   	push   %eax
 804d984:	6a 00                	push   $0x0
 804d986:	e8 f5 b6 ff ff       	call   8049080 
 804d98b:	5a                   	pop    %edx
 804d98c:	59                   	pop    %ecx
 804d98d:	8b 54 24 1c          	mov    0x1c(%esp),%edx
 804d991:	52                   	push   %edx
 804d992:	ff 74 24 10          	pushl  0x10(%esp)
 804d996:	8b 4c 24 20          	mov    0x20(%esp),%ecx
 804d99a:	51                   	push   %ecx
 804d99b:	ff 74 24 1c          	pushl  0x1c(%esp)
 804d99f:	ff 74 24 24          	pushl  0x24(%esp)
 804d9a3:	e9 9f fd ff ff       	jmp    804d747 
 804d9a8:	90                   	nop
 804d9a9:	8d b4 26 00 00 00 00 	lea    0x0(%esi,%eiz,1),%esi
 804d9b0:	83 ec 0c             	sub    $0xc,%esp
 804d9b3:	8d 83 74 b8 ff ff    	lea    -0x478c(%ebx),%eax
 804d9b9:	ff 74 24 58          	pushl  0x58(%esp)
 804d9bd:	ff 74 24 58          	pushl  0x58(%esp)
 804d9c1:	e9 b6 fc ff ff       	jmp    804d67c 
 804d9c6:	8d 76 00             	lea    0x0(%esi),%esi
 804d9c9:	8d bc 27 00 00 00 00 	lea    0x0(%edi,%eiz,1),%edi
 804d9d0:	8b 56 20             	mov    0x20(%esi),%edx
 804d9d3:	8b 46 1c             	mov    0x1c(%esi),%eax
 804d9d6:	83 ec 04             	sub    $0x4,%esp
 804d9d9:	8b 4e 18             	mov    0x18(%esi),%ecx
 804d9dc:	8b 7e 0c             	mov    0xc(%esi),%edi
 804d9df:	89 54 24 20          	mov    %edx,0x20(%esp)
 804d9e3:	89 44 24 08          	mov    %eax,0x8(%esp)
 804d9e7:	89 4c 24 1c          	mov    %ecx,0x1c(%esp)
 804d9eb:	8b 46 08             	mov    0x8(%esi),%eax
 804d9ee:	8b 4e 14             	mov    0x14(%esi),%ecx
 804d9f1:	8b 56 10             	mov    0x10(%esi),%edx
 804d9f4:	89 7c 24 14          	mov    %edi,0x14(%esp)
 804d9f8:	8b 7e 04             	mov    0x4(%esi),%edi
 804d9fb:	89 44 24 18          	mov    %eax,0x18(%esp)
 804d9ff:	8b 36                	mov    (%esi),%esi
 804da01:	8d 83 cc ba ff ff    	lea    -0x4534(%ebx),%eax
 804da07:	89 4c 24 0c          	mov    %ecx,0xc(%esp)
 804da0b:	89 54 24 10          	mov    %edx,0x10(%esp)
 804da0f:	6a 05                	push   $0x5
 804da11:	e9 8b fd ff ff       	jmp    804d7a1 
 804da16:	8d 76 00             	lea    0x0(%esi),%esi
 804da19:	8d bc 27 00 00 00 00 	lea    0x0(%edi,%eiz,1),%edi
 804da20:	53                   	push   %ebx
 804da21:	31 c0                	xor    %eax,%eax
 804da23:	e8 18 c5 ff ff       	call   8049f40 
 804da28:	81 c3 d8 65 00 00    	add    $0x65d8,%ebx
 804da2e:	83 ec 08             	sub    $0x8,%esp
 804da31:	8b 54 24 20          	mov    0x20(%esp),%edx
 804da35:	8b 0a                	mov    (%edx),%ecx
 804da37:	85 c9                	test   %ecx,%ecx
 804da39:	74 0f                	je     804da4a 
 804da3b:	90                   	nop
 804da3c:	8d 74 26 00          	lea    0x0(%esi,%eiz,1),%esi
 804da40:	83 c0 01             	add    $0x1,%eax
 804da43:	8b 0c 82             	mov    (%edx,%eax,4),%ecx
 804da46:	85 c9                	test   %ecx,%ecx
 804da48:	75 f6                	jne    804da40 
 804da4a:	83 ec 08             	sub    $0x8,%esp
 804da4d:	50                   	push   %eax
 804da4e:	52                   	push   %edx
 804da4f:	ff 74 24 2c          	pushl  0x2c(%esp)
 804da53:	ff 74 24 2c          	pushl  0x2c(%esp)
 804da57:	ff 74 24 2c          	pushl  0x2c(%esp)
 804da5b:	ff 74 24 2c          	pushl  0x2c(%esp)
 804da5f:	e8 dc fb ff ff       	call   804d640 
 804da64:	83 c4 28             	add    $0x28,%esp
 804da67:	5b                   	pop    %ebx
 804da68:	c3                   	ret    
 804da69:	8d b4 26 00 00 00 00 	lea    0x0(%esi,%eiz,1),%esi
 804da70:	56                   	push   %esi
 804da71:	53                   	push   %ebx
 804da72:	31 c0                	xor    %eax,%eax
 804da74:	e8 c7 c4 ff ff       	call   8049f40 
 804da79:	81 c3 87 65 00 00    	add    $0x6587,%ebx
 804da7f:	83 ec 34             	sub    $0x34,%esp
 804da82:	8b 74 24 50          	mov    0x50(%esp),%esi
 804da86:	8d 4c 24 08          	lea    0x8(%esp),%ecx
 804da8a:	8d b6 00 00 00 00    	lea    0x0(%esi),%esi
 804da90:	8b 14 86             	mov    (%esi,%eax,4),%edx
 804da93:	85 d2                	test   %edx,%edx
 804da95:	89 14 81             	mov    %edx,(%ecx,%eax,4)
 804da98:	74 08                	je     804daa2 
 804da9a:	83 c0 01             	add    $0x1,%eax
 804da9d:	83 f8 0a             	cmp    $0xa,%eax
 804daa0:	75 ee                	jne    804da90 
 804daa2:	83 ec 08             	sub    $0x8,%esp
 804daa5:	50                   	push   %eax
 804daa6:	51                   	push   %ecx
 804daa7:	ff 74 24 5c          	pushl  0x5c(%esp)
 804daab:	ff 74 24 5c          	pushl  0x5c(%esp)
 804daaf:	ff 74 24 5c          	pushl  0x5c(%esp)
 804dab3:	ff 74 24 5c          	pushl  0x5c(%esp)
 804dab7:	e8 84 fb ff ff       	call   804d640 
 804dabc:	83 c4 54             	add    $0x54,%esp
 804dabf:	5b                   	pop    %ebx
 804dac0:	5e                   	pop    %esi
 804dac1:	c3                   	ret    
 804dac2:	8d b4 26 00 00 00 00 	lea    0x0(%esi,%eiz,1),%esi
 804dac9:	8d bc 27 00 00 00 00 	lea    0x0(%edi,%eiz,1),%edi
 804dad0:	53                   	push   %ebx
 804dad1:	e8 6a c4 ff ff       	call   8049f40 
 804dad6:	81 c3 2a 65 00 00    	add    $0x652a,%ebx
 804dadc:	83 ec 08             	sub    $0x8,%esp
 804dadf:	8d 44 24 20          	lea    0x20(%esp),%eax
 804dae3:	83 ec 0c             	sub    $0xc,%esp
 804dae6:	50                   	push   %eax
 804dae7:	ff 74 24 2c          	pushl  0x2c(%esp)
 804daeb:	ff 74 24 2c          	pushl  0x2c(%esp)
 804daef:	ff 74 24 2c          	pushl  0x2c(%esp)
 804daf3:	ff 74 24 2c          	pushl  0x2c(%esp)
 804daf7:	e8 74 ff ff ff       	call   804da70 
 804dafc:	83 c4 28             	add    $0x28,%esp
 804daff:	5b                   	pop    %ebx
 804db00:	c3                   	ret    
 804db01:	eb 0d                	jmp    804db10 
 804db03:	90                   	nop
 804db04:	90                   	nop
 804db05:	90                   	nop
 804db06:	90                   	nop
 804db07:	90                   	nop
 804db08:	90                   	nop
 804db09:	90                   	nop
 804db0a:	90                   	nop
 804db0b:	90                   	nop
 804db0c:	90                   	nop
 804db0d:	90                   	nop
 804db0e:	90                   	nop
 804db0f:	90                   	nop
 804db10:	56                   	push   %esi
 804db11:	53                   	push   %ebx
 804db12:	e8 29 c4 ff ff       	call   8049f40 
 804db17:	81 c3 e9 64 00 00    	add    $0x64e9,%ebx
 804db1d:	83 ec 08             	sub    $0x8,%esp
 804db20:	8d 83 c2 b8 ff ff    	lea    -0x473e(%ebx),%eax
 804db26:	6a 05                	push   $0x5
 804db28:	50                   	push   %eax
 804db29:	6a 00                	push   $0x0
 804db2b:	e8 50 b5 ff ff       	call   8049080 
 804db30:	8d 93 d7 b8 ff ff    	lea    -0x4729(%ebx),%edx
 804db36:	83 c4 0c             	add    $0xc,%esp
 804db39:	52                   	push   %edx
 804db3a:	50                   	push   %eax
 804db3b:	6a 01                	push   $0x1
 804db3d:	e8 9e b7 ff ff       	call   80492e0 
 804db42:	8d 83 ed b8 ff ff    	lea    -0x4713(%ebx),%eax
 804db48:	83 c4 0c             	add    $0xc,%esp
 804db4b:	6a 05                	push   $0x5
 804db4d:	50                   	push   %eax
 804db4e:	6a 00                	push   $0x0
 804db50:	e8 2b b5 ff ff       	call   8049080 
 804db55:	8d 93 e4 b2 ff ff    	lea    -0x4d1c(%ebx),%edx
 804db5b:	52                   	push   %edx
 804db5c:	8d 93 f0 ac ff ff    	lea    -0x5310(%ebx),%edx
 804db62:	52                   	push   %edx
 804db63:	50                   	push   %eax
 804db64:	6a 01                	push   $0x1
 804db66:	e8 75 b7 ff ff       	call   80492e0 
 804db6b:	8b 83 d0 ff ff ff    	mov    -0x30(%ebx),%eax
 804db71:	83 c4 1c             	add    $0x1c,%esp
 804db74:	8b 30                	mov    (%eax),%esi
 804db76:	8d 83 08 bb ff ff    	lea    -0x44f8(%ebx),%eax
 804db7c:	6a 05                	push   $0x5
 804db7e:	50                   	push   %eax
 804db7f:	6a 00                	push   $0x0
 804db81:	e8 fa b4 ff ff       	call   8049080 
 804db86:	5a                   	pop    %edx
 804db87:	59                   	pop    %ecx
 804db88:	56                   	push   %esi
 804db89:	50                   	push   %eax
 804db8a:	e8 81 b6 ff ff       	call   8049210 
 804db8f:	83 c4 14             	add    $0x14,%esp
 804db92:	5b                   	pop    %ebx
 804db93:	5e                   	pop    %esi
 804db94:	c3                   	ret    
 804db95:	66 90                	xchg   %ax,%ax
 804db97:	66 90                	xchg   %ax,%ax
 804db99:	66 90                	xchg   %ax,%ax
 804db9b:	66 90                	xchg   %ax,%ax
 804db9d:	66 90                	xchg   %ax,%ax
 804db9f:	90                   	nop
 804dba0:	56                   	push   %esi
 804dba1:	53                   	push   %ebx
 804dba2:	e8 99 c3 ff ff       	call   8049f40 
 804dba7:	81 c3 59 64 00 00    	add    $0x6459,%ebx
 804dbad:	83 ec 10             	sub    $0x10,%esp
 804dbb0:	8b 74 24 1c          	mov    0x1c(%esp),%esi
 804dbb4:	56                   	push   %esi
 804dbb5:	e8 c6 b5 ff ff       	call   8049180 
 804dbba:	83 c4 10             	add    $0x10,%esp
 804dbbd:	85 c0                	test   %eax,%eax
 804dbbf:	75 04                	jne    804dbc5 
 804dbc1:	85 f6                	test   %esi,%esi
 804dbc3:	75 06                	jne    804dbcb 
 804dbc5:	83 c4 04             	add    $0x4,%esp
 804dbc8:	5b                   	pop    %ebx
 804dbc9:	5e                   	pop    %esi
 804dbca:	c3                   	ret    
 804dbcb:	e8 70 02 00 00       	call   804de40 
 804dbd0:	53                   	push   %ebx
 804dbd1:	e8 6a c3 ff ff       	call   8049f40 
 804dbd6:	81 c3 2a 64 00 00    	add    $0x642a,%ebx
 804dbdc:	83 ec 08             	sub    $0x8,%esp
 804dbdf:	8b 44 24 10          	mov    0x10(%esp),%eax
 804dbe3:	f7 64 24 14          	mull   0x14(%esp)
 804dbe7:	70 0e                	jo     804dbf7 
 804dbe9:	83 ec 0c             	sub    $0xc,%esp
 804dbec:	50                   	push   %eax
 804dbed:	e8 ae ff ff ff       	call   804dba0 
 804dbf2:	83 c4 18             	add    $0x18,%esp
 804dbf5:	5b                   	pop    %ebx
 804dbf6:	c3                   	ret    
 804dbf7:	e8 44 02 00 00       	call   804de40 
 804dbfc:	8d 74 26 00          	lea    0x0(%esi,%eiz,1),%esi
 804dc00:	53                   	push   %ebx
 804dc01:	e8 3a c3 ff ff       	call   8049f40 
 804dc06:	81 c3 fa 63 00 00    	add    $0x63fa,%ebx
 804dc0c:	83 ec 14             	sub    $0x14,%esp
 804dc0f:	ff 74 24 1c          	pushl  0x1c(%esp)
 804dc13:	e8 88 ff ff ff       	call   804dba0 
 804dc18:	83 c4 18             	add    $0x18,%esp
 804dc1b:	5b                   	pop    %ebx
 804dc1c:	c3                   	ret    
 804dc1d:	8d 76 00             	lea    0x0(%esi),%esi
 804dc20:	56                   	push   %esi
 804dc21:	53                   	push   %ebx
 804dc22:	e8 19 c3 ff ff       	call   8049f40 
 804dc27:	81 c3 d9 63 00 00    	add    $0x63d9,%ebx
 804dc2d:	83 ec 04             	sub    $0x4,%esp
 804dc30:	8b 74 24 14          	mov    0x14(%esp),%esi
 804dc34:	8b 44 24 10          	mov    0x10(%esp),%eax
 804dc38:	85 f6                	test   %esi,%esi
 804dc3a:	75 04                	jne    804dc40 
 804dc3c:	85 c0                	test   %eax,%eax
 804dc3e:	75 20                	jne    804dc60 
 804dc40:	83 ec 08             	sub    $0x8,%esp
 804dc43:	56                   	push   %esi
 804dc44:	50                   	push   %eax
 804dc45:	e8 26 b5 ff ff       	call   8049170 
 804dc4a:	83 c4 10             	add    $0x10,%esp
 804dc4d:	85 c0                	test   %eax,%eax
 804dc4f:	75 04                	jne    804dc55 
 804dc51:	85 f6                	test   %esi,%esi
 804dc53:	75 1f                	jne    804dc74 
 804dc55:	83 c4 04             	add    $0x4,%esp
 804dc58:	5b                   	pop    %ebx
 804dc59:	5e                   	pop    %esi
 804dc5a:	c3                   	ret    
 804dc5b:	90                   	nop
 804dc5c:	8d 74 26 00          	lea    0x0(%esi,%eiz,1),%esi
 804dc60:	83 ec 0c             	sub    $0xc,%esp
 804dc63:	50                   	push   %eax
 804dc64:	e8 a7 b3 ff ff       	call   8049010 
 804dc69:	83 c4 10             	add    $0x10,%esp
 804dc6c:	31 c0                	xor    %eax,%eax
 804dc6e:	83 c4 04             	add    $0x4,%esp
 804dc71:	5b                   	pop    %ebx
 804dc72:	5e                   	pop    %esi
 804dc73:	c3                   	ret    
 804dc74:	e8 c7 01 00 00       	call   804de40 
 804dc79:	8d b4 26 00 00 00 00 	lea    0x0(%esi,%eiz,1),%esi
 804dc80:	53                   	push   %ebx
 804dc81:	e8 ba c2 ff ff       	call   8049f40 
 804dc86:	81 c3 7a 63 00 00    	add    $0x637a,%ebx
 804dc8c:	83 ec 08             	sub    $0x8,%esp
 804dc8f:	8b 44 24 14          	mov    0x14(%esp),%eax
 804dc93:	f7 64 24 18          	mull   0x18(%esp)
 804dc97:	70 12                	jo     804dcab 
 804dc99:	83 ec 08             	sub    $0x8,%esp
 804dc9c:	50                   	push   %eax
 804dc9d:	ff 74 24 1c          	pushl  0x1c(%esp)
 804dca1:	e8 7a ff ff ff       	call   804dc20 
 804dca6:	83 c4 18             	add    $0x18,%esp
 804dca9:	5b                   	pop    %ebx
 804dcaa:	c3                   	ret    
 804dcab:	e8 90 01 00 00       	call   804de40 
 804dcb0:	55                   	push   %ebp
 804dcb1:	57                   	push   %edi
 804dcb2:	56                   	push   %esi
 804dcb3:	53                   	push   %ebx
 804dcb4:	e8 87 c2 ff ff       	call   8049f40 
 804dcb9:	81 c3 47 63 00 00    	add    $0x6347,%ebx
 804dcbf:	83 ec 0c             	sub    $0xc,%esp
 804dcc2:	8b 7c 24 20          	mov    0x20(%esp),%edi
 804dcc6:	8b 6c 24 24          	mov    0x24(%esp),%ebp
 804dcca:	8b 74 24 28          	mov    0x28(%esp),%esi
 804dcce:	85 ff                	test   %edi,%edi
 804dcd0:	8b 4d 00             	mov    0x0(%ebp),%ecx
 804dcd3:	74 33                	je     804dd08 
 804dcd5:	31 d2                	xor    %edx,%edx
 804dcd7:	b8 aa aa aa aa       	mov    $0xaaaaaaaa,%eax
 804dcdc:	f7 f6                	div    %esi
 804dcde:	39 c1                	cmp    %eax,%ecx
 804dce0:	73 3e                	jae    804dd20 
 804dce2:	89 c8                	mov    %ecx,%eax
 804dce4:	d1 e8                	shr    %eax
 804dce6:	8d 4c 01 01          	lea    0x1(%ecx,%eax,1),%ecx
 804dcea:	89 4d 00             	mov    %ecx,0x0(%ebp)
 804dced:	83 ec 08             	sub    $0x8,%esp
 804dcf0:	0f af ce             	imul   %esi,%ecx
 804dcf3:	51                   	push   %ecx
 804dcf4:	57                   	push   %edi
 804dcf5:	e8 26 ff ff ff       	call   804dc20 
 804dcfa:	83 c4 1c             	add    $0x1c,%esp
 804dcfd:	5b                   	pop    %ebx
 804dcfe:	5e                   	pop    %esi
 804dcff:	5f                   	pop    %edi
 804dd00:	5d                   	pop    %ebp
 804dd01:	c3                   	ret    
 804dd02:	8d b6 00 00 00 00    	lea    0x0(%esi),%esi
 804dd08:	85 c9                	test   %ecx,%ecx
 804dd0a:	75 de                	jne    804dcea 
 804dd0c:	31 d2                	xor    %edx,%edx
 804dd0e:	b8 40 00 00 00       	mov    $0x40,%eax
 804dd13:	31 c9                	xor    %ecx,%ecx
 804dd15:	f7 f6                	div    %esi
 804dd17:	85 c0                	test   %eax,%eax
 804dd19:	0f 94 c1             	sete   %cl
 804dd1c:	01 c1                	add    %eax,%ecx
 804dd1e:	eb ca                	jmp    804dcea 
 804dd20:	e8 1b 01 00 00       	call   804de40 
 804dd25:	8d 74 26 00          	lea    0x0(%esi,%eiz,1),%esi
 804dd29:	8d bc 27 00 00 00 00 	lea    0x0(%edi,%eiz,1),%edi
 804dd30:	56                   	push   %esi
 804dd31:	53                   	push   %ebx
 804dd32:	e8 09 c2 ff ff       	call   8049f40 
 804dd37:	81 c3 c9 62 00 00    	add    $0x62c9,%ebx
 804dd3d:	83 ec 04             	sub    $0x4,%esp
 804dd40:	8b 54 24 10          	mov    0x10(%esp),%edx
 804dd44:	8b 4c 24 14          	mov    0x14(%esp),%ecx
 804dd48:	85 d2                	test   %edx,%edx
 804dd4a:	8b 01                	mov    (%ecx),%eax
 804dd4c:	74 22                	je     804dd70 
 804dd4e:	3d a9 aa aa aa       	cmp    $0xaaaaaaa9,%eax
 804dd53:	77 26                	ja     804dd7b 
 804dd55:	89 c6                	mov    %eax,%esi
 804dd57:	d1 ee                	shr    %esi
 804dd59:	8d 44 06 01          	lea    0x1(%esi,%eax,1),%eax
 804dd5d:	83 ec 08             	sub    $0x8,%esp
 804dd60:	89 01                	mov    %eax,(%ecx)
 804dd62:	50                   	push   %eax
 804dd63:	52                   	push   %edx
 804dd64:	e8 b7 fe ff ff       	call   804dc20 
 804dd69:	83 c4 14             	add    $0x14,%esp
 804dd6c:	5b                   	pop    %ebx
 804dd6d:	5e                   	pop    %esi
 804dd6e:	c3                   	ret    
 804dd6f:	90                   	nop
 804dd70:	85 c0                	test   %eax,%eax
 804dd72:	75 e9                	jne    804dd5d 
 804dd74:	b8 40 00 00 00       	mov    $0x40,%eax
 804dd79:	eb e2                	jmp    804dd5d 
 804dd7b:	e8 c0 00 00 00       	call   804de40 
 804dd80:	56                   	push   %esi
 804dd81:	53                   	push   %ebx
 804dd82:	e8 b9 c1 ff ff       	call   8049f40 
 804dd87:	81 c3 79 62 00 00    	add    $0x6279,%ebx
 804dd8d:	83 ec 10             	sub    $0x10,%esp
 804dd90:	8b 74 24 1c          	mov    0x1c(%esp),%esi
 804dd94:	56                   	push   %esi
 804dd95:	e8 06 fe ff ff       	call   804dba0 
 804dd9a:	83 c4 0c             	add    $0xc,%esp
 804dd9d:	56                   	push   %esi
 804dd9e:	6a 00                	push   $0x0
 804dda0:	50                   	push   %eax
 804dda1:	e8 da b4 ff ff       	call   8049280 
 804dda6:	83 c4 14             	add    $0x14,%esp
 804dda9:	5b                   	pop    %ebx
 804ddaa:	5e                   	pop    %esi
 804ddab:	c3                   	ret    
 804ddac:	8d 74 26 00          	lea    0x0(%esi,%eiz,1),%esi
 804ddb0:	53                   	push   %ebx
 804ddb1:	e8 8a c1 ff ff       	call   8049f40 
 804ddb6:	81 c3 4a 62 00 00    	add    $0x624a,%ebx
 804ddbc:	83 ec 10             	sub    $0x10,%esp
 804ddbf:	ff 74 24 1c          	pushl  0x1c(%esp)
 804ddc3:	ff 74 24 1c          	pushl  0x1c(%esp)
 804ddc7:	e8 24 b6 ff ff       	call   80493f0 
 804ddcc:	83 c4 10             	add    $0x10,%esp
 804ddcf:	85 c0                	test   %eax,%eax
 804ddd1:	74 05                	je     804ddd8 
 804ddd3:	83 c4 08             	add    $0x8,%esp
 804ddd6:	5b                   	pop    %ebx
 804ddd7:	c3                   	ret    
 804ddd8:	e8 63 00 00 00       	call   804de40 
 804dddd:	8d 76 00             	lea    0x0(%esi),%esi
 804dde0:	56                   	push   %esi
 804dde1:	53                   	push   %ebx
 804dde2:	e8 59 c1 ff ff       	call   8049f40 
 804dde7:	81 c3 19 62 00 00    	add    $0x6219,%ebx
 804dded:	83 ec 10             	sub    $0x10,%esp
 804ddf0:	8b 74 24 20          	mov    0x20(%esp),%esi
 804ddf4:	56                   	push   %esi
 804ddf5:	e8 a6 fd ff ff       	call   804dba0 
 804ddfa:	83 c4 0c             	add    $0xc,%esp
 804ddfd:	56                   	push   %esi
 804ddfe:	ff 74 24 18          	pushl  0x18(%esp)
 804de02:	50                   	push   %eax
 804de03:	e8 18 b2 ff ff       	call   8049020 
 804de08:	83 c4 14             	add    $0x14,%esp
 804de0b:	5b                   	pop    %ebx
 804de0c:	5e                   	pop    %esi
 804de0d:	c3                   	ret    
 804de0e:	66 90                	xchg   %ax,%ax
 804de10:	56                   	push   %esi
 804de11:	53                   	push   %ebx
 804de12:	e8 29 c1 ff ff       	call   8049f40 
 804de17:	81 c3 e9 61 00 00    	add    $0x61e9,%ebx
 804de1d:	83 ec 10             	sub    $0x10,%esp
 804de20:	8b 74 24 1c          	mov    0x1c(%esp),%esi
 804de24:	56                   	push   %esi
 804de25:	e8 26 b4 ff ff       	call   8049250 
 804de2a:	5a                   	pop    %edx
 804de2b:	59                   	pop    %ecx
 804de2c:	83 c0 01             	add    $0x1,%eax
 804de2f:	50                   	push   %eax
 804de30:	56                   	push   %esi
 804de31:	e8 aa ff ff ff       	call   804dde0 
 804de36:	83 c4 14             	add    $0x14,%esp
 804de39:	5b                   	pop    %ebx
 804de3a:	5e                   	pop    %esi
 804de3b:	c3                   	ret    
 804de3c:	66 90                	xchg   %ax,%ax
 804de3e:	66 90                	xchg   %ax,%ax
 804de40:	53                   	push   %ebx
 804de41:	e8 fa c0 ff ff       	call   8049f40 
 804de46:	81 c3 ba 61 00 00    	add    $0x61ba,%ebx
 804de4c:	83 ec 0c             	sub    $0xc,%esp
 804de4f:	8d 83 af bb ff ff    	lea    -0x4451(%ebx),%eax
 804de55:	6a 05                	push   $0x5
 804de57:	50                   	push   %eax
 804de58:	6a 00                	push   $0x0
 804de5a:	e8 21 b2 ff ff       	call   8049080 
 804de5f:	8d 93 2c 01 00 00    	lea    0x12c(%ebx),%edx
 804de65:	8b 12                	mov    (%edx),%edx
 804de67:	50                   	push   %eax
 804de68:	8d 83 81 b4 ff ff    	lea    -0x4b7f(%ebx),%eax
 804de6e:	50                   	push   %eax
 804de6f:	6a 00                	push   $0x0
 804de71:	52                   	push   %edx
 804de72:	e8 d9 b2 ff ff       	call   8049150 
 804de77:	83 c4 20             	add    $0x20,%esp
 804de7a:	e8 21 b5 ff ff       	call   80493a0 
 804de7f:	90                   	nop
 804de80:	55                   	push   %ebp
 804de81:	57                   	push   %edi
 804de82:	56                   	push   %esi
 804de83:	53                   	push   %ebx
 804de84:	e8 b7 c0 ff ff       	call   8049f40 
 804de89:	81 c3 77 61 00 00    	add    $0x6177,%ebx
 804de8f:	83 ec 18             	sub    $0x18,%esp
 804de92:	8b 74 24 2c          	mov    0x2c(%esp),%esi
 804de96:	56                   	push   %esi
 804de97:	e8 24 b4 ff ff       	call   80492c0 
 804de9c:	83 c4 10             	add    $0x10,%esp
 804de9f:	85 c0                	test   %eax,%eax
 804dea1:	78 20                	js     804dec3 
 804dea3:	83 ec 0c             	sub    $0xc,%esp
 804dea6:	56                   	push   %esi
 804dea7:	e8 f4 b2 ff ff       	call   80491a0 
 804deac:	83 c4 10             	add    $0x10,%esp
 804deaf:	85 c0                	test   %eax,%eax
 804deb1:	75 2d                	jne    804dee0 
 804deb3:	83 ec 0c             	sub    $0xc,%esp
 804deb6:	56                   	push   %esi
 804deb7:	e8 84 00 00 00       	call   804df40 
 804debc:	83 c4 10             	add    $0x10,%esp
 804debf:	85 c0                	test   %eax,%eax
 804dec1:	75 4c                	jne    804df0f 
 804dec3:	83 ec 0c             	sub    $0xc,%esp
 804dec6:	56                   	push   %esi
 804dec7:	e8 84 b1 ff ff       	call   8049050 
 804decc:	83 c4 10             	add    $0x10,%esp
 804decf:	83 c4 0c             	add    $0xc,%esp
 804ded2:	5b                   	pop    %ebx
 804ded3:	5e                   	pop    %esi
 804ded4:	5f                   	pop    %edi
 804ded5:	5d                   	pop    %ebp
 804ded6:	c3                   	ret    
 804ded7:	89 f6                	mov    %esi,%esi
 804ded9:	8d bc 27 00 00 00 00 	lea    0x0(%edi,%eiz,1),%edi
 804dee0:	83 ec 0c             	sub    $0xc,%esp
 804dee3:	56                   	push   %esi
 804dee4:	e8 d7 b3 ff ff       	call   80492c0 
 804dee9:	6a 01                	push   $0x1
 804deeb:	6a 00                	push   $0x0
 804deed:	6a 00                	push   $0x0
 804deef:	50                   	push   %eax
 804def0:	e8 5b b4 ff ff       	call   8049350 
 804def5:	21 d0                	and    %edx,%eax
 804def7:	83 c4 20             	add    $0x20,%esp
 804defa:	83 f8 ff             	cmp    $0xffffffff,%eax
 804defd:	74 c4                	je     804dec3 
 804deff:	83 ec 0c             	sub    $0xc,%esp
 804df02:	56                   	push   %esi
 804df03:	e8 38 00 00 00       	call   804df40 
 804df08:	83 c4 10             	add    $0x10,%esp
 804df0b:	85 c0                	test   %eax,%eax
 804df0d:	74 b4                	je     804dec3 
 804df0f:	e8 8c b3 ff ff       	call   80492a0 
 804df14:	83 ec 0c             	sub    $0xc,%esp
 804df17:	8b 28                	mov    (%eax),%ebp
 804df19:	89 c7                	mov    %eax,%edi
 804df1b:	56                   	push   %esi
 804df1c:	e8 2f b1 ff ff       	call   8049050 
 804df21:	83 c4 10             	add    $0x10,%esp
 804df24:	85 ed                	test   %ebp,%ebp
 804df26:	74 a7                	je     804decf 
 804df28:	89 2f                	mov    %ebp,(%edi)
 804df2a:	b8 ff ff ff ff       	mov    $0xffffffff,%eax
 804df2f:	eb 9e                	jmp    804decf 
 804df31:	66 90                	xchg   %ax,%ax
 804df33:	66 90                	xchg   %ax,%ax
 804df35:	66 90                	xchg   %ax,%ax
 804df37:	66 90                	xchg   %ax,%ax
 804df39:	66 90                	xchg   %ax,%ax
 804df3b:	66 90                	xchg   %ax,%ax
 804df3d:	66 90                	xchg   %ax,%ax
 804df3f:	90                   	nop
 804df40:	56                   	push   %esi
 804df41:	53                   	push   %ebx
 804df42:	e8 f9 bf ff ff       	call   8049f40 
 804df47:	81 c3 b9 60 00 00    	add    $0x60b9,%ebx
 804df4d:	83 ec 04             	sub    $0x4,%esp
 804df50:	8b 74 24 10          	mov    0x10(%esp),%esi
 804df54:	85 f6                	test   %esi,%esi
 804df56:	74 18                	je     804df70 
 804df58:	83 ec 0c             	sub    $0xc,%esp
 804df5b:	56                   	push   %esi
 804df5c:	e8 3f b2 ff ff       	call   80491a0 
 804df61:	83 c4 10             	add    $0x10,%esp
 804df64:	85 c0                	test   %eax,%eax
 804df66:	74 08                	je     804df70 
 804df68:	f7 06 00 01 00 00    	testl  $0x100,(%esi)
 804df6e:	75 18                	jne    804df88 
 804df70:	83 ec 0c             	sub    $0xc,%esp
 804df73:	56                   	push   %esi
 804df74:	e8 67 b0 ff ff       	call   8048fe0 
 804df79:	83 c4 10             	add    $0x10,%esp
 804df7c:	83 c4 04             	add    $0x4,%esp
 804df7f:	5b                   	pop    %ebx
 804df80:	5e                   	pop    %esi
 804df81:	c3                   	ret    
 804df82:	8d b6 00 00 00 00    	lea    0x0(%esi),%esi
 804df88:	6a 01                	push   $0x1
 804df8a:	6a 00                	push   $0x0
 804df8c:	6a 00                	push   $0x0
 804df8e:	56                   	push   %esi
 804df8f:	e8 0c 00 00 00       	call   804dfa0 
 804df94:	83 c4 10             	add    $0x10,%esp
 804df97:	eb d7                	jmp    804df70 
 804df99:	66 90                	xchg   %ax,%ax
 804df9b:	66 90                	xchg   %ax,%ax
 804df9d:	66 90                	xchg   %ax,%ax
 804df9f:	90                   	nop
 804dfa0:	55                   	push   %ebp
 804dfa1:	57                   	push   %edi
 804dfa2:	56                   	push   %esi
 804dfa3:	53                   	push   %ebx
 804dfa4:	e8 97 bf ff ff       	call   8049f40 
 804dfa9:	81 c3 57 60 00 00    	add    $0x6057,%ebx
 804dfaf:	83 ec 0c             	sub    $0xc,%esp
 804dfb2:	8b 6c 24 20          	mov    0x20(%esp),%ebp
 804dfb6:	8b 74 24 24          	mov    0x24(%esp),%esi
 804dfba:	8b 7c 24 28          	mov    0x28(%esp),%edi
 804dfbe:	8b 45 04             	mov    0x4(%ebp),%eax
 804dfc1:	39 45 08             	cmp    %eax,0x8(%ebp)
 804dfc4:	74 1a                	je     804dfe0 
 804dfc6:	ff 74 24 2c          	pushl  0x2c(%esp)
 804dfca:	57                   	push   %edi
 804dfcb:	56                   	push   %esi
 804dfcc:	55                   	push   %ebp
 804dfcd:	e8 8e b0 ff ff       	call   8049060 
 804dfd2:	83 c4 10             	add    $0x10,%esp
 804dfd5:	83 c4 0c             	add    $0xc,%esp
 804dfd8:	5b                   	pop    %ebx
 804dfd9:	5e                   	pop    %esi
 804dfda:	5f                   	pop    %edi
 804dfdb:	5d                   	pop    %ebp
 804dfdc:	c3                   	ret    
 804dfdd:	8d 76 00             	lea    0x0(%esi),%esi
 804dfe0:	8b 45 10             	mov    0x10(%ebp),%eax
 804dfe3:	39 45 14             	cmp    %eax,0x14(%ebp)
 804dfe6:	75 de                	jne    804dfc6 
 804dfe8:	8b 45 24             	mov    0x24(%ebp),%eax
 804dfeb:	85 c0                	test   %eax,%eax
 804dfed:	75 d7                	jne    804dfc6 
 804dfef:	83 ec 0c             	sub    $0xc,%esp
 804dff2:	55                   	push   %ebp
 804dff3:	e8 c8 b2 ff ff       	call   80492c0 
 804dff8:	ff 74 24 3c          	pushl  0x3c(%esp)
 804dffc:	57                   	push   %edi
 804dffd:	56                   	push   %esi
 804dffe:	50                   	push   %eax
 804dfff:	e8 4c b3 ff ff       	call   8049350 
 804e004:	89 c1                	mov    %eax,%ecx
 804e006:	83 c4 20             	add    $0x20,%esp
 804e009:	21 d1                	and    %edx,%ecx
 804e00b:	83 f9 ff             	cmp    $0xffffffff,%ecx
 804e00e:	74 0e                	je     804e01e 
 804e010:	89 45 4c             	mov    %eax,0x4c(%ebp)
 804e013:	83 65 00 ef          	andl   $0xffffffef,0x0(%ebp)
 804e017:	31 c0                	xor    %eax,%eax
 804e019:	89 55 50             	mov    %edx,0x50(%ebp)
 804e01c:	eb b7                	jmp    804dfd5 
 804e01e:	83 c8 ff             	or     $0xffffffff,%eax
 804e021:	eb b2                	jmp    804dfd5 
 804e023:	66 90                	xchg   %ax,%ax
 804e025:	66 90                	xchg   %ax,%ax
 804e027:	66 90                	xchg   %ax,%ax
 804e029:	66 90                	xchg   %ax,%ax
 804e02b:	66 90                	xchg   %ax,%ax
 804e02d:	66 90                	xchg   %ax,%ax
 804e02f:	90                   	nop
 804e030:	53                   	push   %ebx
 804e031:	e8 0a bf ff ff       	call   8049f40 
 804e036:	81 c3 ca 5f 00 00    	add    $0x5fca,%ebx
 804e03c:	83 ec 0c             	sub    $0xc,%esp
 804e03f:	8d 83 af bb ff ff    	lea    -0x4451(%ebx),%eax
 804e045:	6a 05                	push   $0x5
 804e047:	50                   	push   %eax
 804e048:	6a 00                	push   $0x0
 804e04a:	e8 31 b0 ff ff       	call   8049080 
 804e04f:	50                   	push   %eax
 804e050:	8d 83 70 b8 ff ff    	lea    -0x4790(%ebx),%eax
 804e056:	50                   	push   %eax
 804e057:	8b 83 b4 ff ff ff    	mov    -0x4c(%ebx),%eax
 804e05d:	6a 01                	push   $0x1
 804e05f:	ff 30                	pushl  (%eax)
 804e061:	e8 fa b2 ff ff       	call   8049360 
 804e066:	8d 83 2c 01 00 00    	lea    0x12c(%ebx),%eax
 804e06c:	83 c4 14             	add    $0x14,%esp
 804e06f:	8b 00                	mov    (%eax),%eax
 804e071:	50                   	push   %eax
 804e072:	e8 69 b1 ff ff       	call   80491e0 
 804e077:	89 f6                	mov    %esi,%esi
 804e079:	8d bc 27 00 00 00 00 	lea    0x0(%edi,%eiz,1),%edi
 804e080:	83 ec 0c             	sub    $0xc,%esp
 804e083:	f6 40 28 01          	testb  $0x1,0x28(%eax)
 804e087:	75 17                	jne    804e0a0 
 804e089:	83 ec 0c             	sub    $0xc,%esp
 804e08c:	52                   	push   %edx
 804e08d:	ff 50 1c             	call   *0x1c(%eax)
 804e090:	83 c4 10             	add    $0x10,%esp
 804e093:	83 c4 0c             	add    $0xc,%esp
 804e096:	c3                   	ret    
 804e097:	89 f6                	mov    %esi,%esi
 804e099:	8d bc 27 00 00 00 00 	lea    0x0(%edi,%eiz,1),%edi
 804e0a0:	83 ec 08             	sub    $0x8,%esp
 804e0a3:	52                   	push   %edx
 804e0a4:	ff 70 24             	pushl  0x24(%eax)
 804e0a7:	ff 50 1c             	call   *0x1c(%eax)
 804e0aa:	83 c4 10             	add    $0x10,%esp
 804e0ad:	83 c4 0c             	add    $0xc,%esp
 804e0b0:	c3                   	ret    
 804e0b1:	eb 0d                	jmp    804e0c0 
 804e0b3:	90                   	nop
 804e0b4:	90                   	nop
 804e0b5:	90                   	nop
 804e0b6:	90                   	nop
 804e0b7:	90                   	nop
 804e0b8:	90                   	nop
 804e0b9:	90                   	nop
 804e0ba:	90                   	nop
 804e0bb:	90                   	nop
 804e0bc:	90                   	nop
 804e0bd:	90                   	nop
 804e0be:	90                   	nop
 804e0bf:	90                   	nop
 804e0c0:	55                   	push   %ebp
 804e0c1:	57                   	push   %edi
 804e0c2:	56                   	push   %esi
 804e0c3:	53                   	push   %ebx
 804e0c4:	89 c3                	mov    %eax,%ebx
 804e0c6:	e8 26 03 00 00       	call   804e3f1 
 804e0cb:	81 c7 35 5f 00 00    	add    $0x5f35,%edi
 804e0d1:	83 ec 1c             	sub    $0x1c,%esp
 804e0d4:	85 c9                	test   %ecx,%ecx
 804e0d6:	74 58                	je     804e130 
 804e0d8:	89 ce                	mov    %ecx,%esi
 804e0da:	8d 41 ff             	lea    -0x1(%ecx),%eax
 804e0dd:	89 cd                	mov    %ecx,%ebp
 804e0df:	f7 de                	neg    %esi
 804e0e1:	85 d2                	test   %edx,%edx
 804e0e3:	75 05                	jne    804e0ea 
 804e0e5:	ba e0 0f 00 00       	mov    $0xfe0,%edx
 804e0ea:	89 43 18             	mov    %eax,0x18(%ebx)
 804e0ed:	89 13                	mov    %edx,(%ebx)
 804e0ef:	89 d8                	mov    %ebx,%eax
 804e0f1:	e8 8a ff ff ff       	call   804e080 
 804e0f6:	85 c0                	test   %eax,%eax
 804e0f8:	89 43 04             	mov    %eax,0x4(%ebx)
 804e0fb:	74 4b                	je     804e148 
 804e0fd:	8d 54 28 07          	lea    0x7(%eax,%ebp,1),%edx
 804e101:	21 f2                	and    %esi,%edx
 804e103:	89 53 08             	mov    %edx,0x8(%ebx)
 804e106:	89 53 0c             	mov    %edx,0xc(%ebx)
 804e109:	8b 13                	mov    (%ebx),%edx
 804e10b:	01 c2                	add    %eax,%edx
 804e10d:	89 10                	mov    %edx,(%eax)
 804e10f:	89 53 10             	mov    %edx,0x10(%ebx)
 804e112:	c7 40 04 00 00 00 00 	movl   $0x0,0x4(%eax)
 804e119:	80 63 28 f9          	andb   $0xf9,0x28(%ebx)
 804e11d:	83 c4 1c             	add    $0x1c,%esp
 804e120:	5b                   	pop    %ebx
 804e121:	b8 01 00 00 00       	mov    $0x1,%eax
 804e126:	5e                   	pop    %esi
 804e127:	5f                   	pop    %edi
 804e128:	5d                   	pop    %ebp
 804e129:	c3                   	ret    
 804e12a:	8d b6 00 00 00 00    	lea    0x0(%esi),%esi
 804e130:	be f8 ff ff ff       	mov    $0xfffffff8,%esi
 804e135:	b8 07 00 00 00       	mov    $0x7,%eax
 804e13a:	bd 08 00 00 00       	mov    $0x8,%ebp
 804e13f:	eb a0                	jmp    804e0e1 
 804e141:	8d b4 26 00 00 00 00 	lea    0x0(%esi,%eiz,1),%esi
 804e148:	8d 97 80 01 00 00    	lea    0x180(%edi),%edx
 804e14e:	89 44 24 0c          	mov    %eax,0xc(%esp)
 804e152:	ff 12                	call   *(%edx)
 804e154:	8b 44 24 0c          	mov    0xc(%esp),%eax
 804e158:	eb a3                	jmp    804e0fd 
 804e15a:	8d b6 00 00 00 00    	lea    0x0(%esi),%esi
 804e160:	83 ec 0c             	sub    $0xc,%esp
 804e163:	f6 40 28 01          	testb  $0x1,0x28(%eax)
 804e167:	75 17                	jne    804e180 
 804e169:	83 ec 0c             	sub    $0xc,%esp
 804e16c:	52                   	push   %edx
 804e16d:	ff 50 20             	call   *0x20(%eax)
 804e170:	83 c4 10             	add    $0x10,%esp
 804e173:	83 c4 0c             	add    $0xc,%esp
 804e176:	c3                   	ret    
 804e177:	89 f6                	mov    %esi,%esi
 804e179:	8d bc 27 00 00 00 00 	lea    0x0(%edi,%eiz,1),%edi
 804e180:	83 ec 08             	sub    $0x8,%esp
 804e183:	52                   	push   %edx
 804e184:	ff 70 24             	pushl  0x24(%eax)
 804e187:	ff 50 20             	call   *0x20(%eax)
 804e18a:	83 c4 10             	add    $0x10,%esp
 804e18d:	83 c4 0c             	add    $0xc,%esp
 804e190:	c3                   	ret    
 804e191:	eb 0d                	jmp    804e1a0 
 804e193:	90                   	nop
 804e194:	90                   	nop
 804e195:	90                   	nop
 804e196:	90                   	nop
 804e197:	90                   	nop
 804e198:	90                   	nop
 804e199:	90                   	nop
 804e19a:	90                   	nop
 804e19b:	90                   	nop
 804e19c:	90                   	nop
 804e19d:	90                   	nop
 804e19e:	90                   	nop
 804e19f:	90                   	nop
 804e1a0:	8b 44 24 04          	mov    0x4(%esp),%eax
 804e1a4:	8b 54 24 10          	mov    0x10(%esp),%edx
 804e1a8:	8b 4c 24 0c          	mov    0xc(%esp),%ecx
 804e1ac:	89 50 1c             	mov    %edx,0x1c(%eax)
 804e1af:	8b 54 24 14          	mov    0x14(%esp),%edx
 804e1b3:	80 60 28 fe          	andb   $0xfe,0x28(%eax)
 804e1b7:	89 50 20             	mov    %edx,0x20(%eax)
 804e1ba:	8b 54 24 08          	mov    0x8(%esp),%edx
 804e1be:	e9 fd fe ff ff       	jmp    804e0c0 
 804e1c3:	8d b6 00 00 00 00    	lea    0x0(%esi),%esi
 804e1c9:	8d bc 27 00 00 00 00 	lea    0x0(%edi,%eiz,1),%edi
 804e1d0:	8b 44 24 04          	mov    0x4(%esp),%eax
 804e1d4:	8b 54 24 10          	mov    0x10(%esp),%edx
 804e1d8:	8b 4c 24 0c          	mov    0xc(%esp),%ecx
 804e1dc:	89 50 1c             	mov    %edx,0x1c(%eax)
 804e1df:	8b 54 24 14          	mov    0x14(%esp),%edx
 804e1e3:	80 48 28 01          	orb    $0x1,0x28(%eax)
 804e1e7:	89 50 20             	mov    %edx,0x20(%eax)
 804e1ea:	8b 54 24 18          	mov    0x18(%esp),%edx
 804e1ee:	89 50 24             	mov    %edx,0x24(%eax)
 804e1f1:	8b 54 24 08          	mov    0x8(%esp),%edx
 804e1f5:	e9 c6 fe ff ff       	jmp    804e0c0 
 804e1fa:	8d b6 00 00 00 00    	lea    0x0(%esi),%esi
 804e200:	55                   	push   %ebp
 804e201:	57                   	push   %edi
 804e202:	56                   	push   %esi
 804e203:	53                   	push   %ebx
 804e204:	e8 37 bd ff ff       	call   8049f40 
 804e209:	81 c3 f7 5d 00 00    	add    $0x5df7,%ebx
 804e20f:	83 ec 1c             	sub    $0x1c,%esp
 804e212:	8b 74 24 30          	mov    0x30(%esp),%esi
 804e216:	8b 44 24 34          	mov    0x34(%esp),%eax
 804e21a:	8b 7e 0c             	mov    0xc(%esi),%edi
 804e21d:	2b 7e 08             	sub    0x8(%esi),%edi
 804e220:	8b 56 18             	mov    0x18(%esi),%edx
 804e223:	8b 6e 04             	mov    0x4(%esi),%ebp
 804e226:	01 f8                	add    %edi,%eax
 804e228:	01 c2                	add    %eax,%edx
 804e22a:	39 c7                	cmp    %eax,%edi
 804e22c:	77 04                	ja     804e232 
 804e22e:	39 d0                	cmp    %edx,%eax
 804e230:	76 1e                	jbe    804e250 
 804e232:	8d 83 80 01 00 00    	lea    0x180(%ebx),%eax
 804e238:	ff 10                	call   *(%eax)
 804e23a:	c7 46 04 00 00 00 00 	movl   $0x0,0x4(%esi)
 804e241:	89 2d 04 00 00 00    	mov    %ebp,0x4
 804e247:	0f 0b                	ud2    
 804e249:	8d b4 26 00 00 00 00 	lea    0x0(%esi,%eiz,1),%esi
 804e250:	8b 06                	mov    (%esi),%eax
 804e252:	39 d0                	cmp    %edx,%eax
 804e254:	0f 82 8e 00 00 00    	jb     804e2e8 
 804e25a:	89 f9                	mov    %edi,%ecx
 804e25c:	c1 e9 03             	shr    $0x3,%ecx
 804e25f:	8d 4c 0a 64          	lea    0x64(%edx,%ecx,1),%ecx
 804e263:	39 c1                	cmp    %eax,%ecx
 804e265:	72 79                	jb     804e2e0 
 804e267:	89 ca                	mov    %ecx,%edx
 804e269:	89 f0                	mov    %esi,%eax
 804e26b:	89 4c 24 08          	mov    %ecx,0x8(%esp)
 804e26f:	e8 0c fe ff ff       	call   804e080 
 804e274:	85 c0                	test   %eax,%eax
 804e276:	89 c2                	mov    %eax,%edx
 804e278:	74 b8                	je     804e232 
 804e27a:	8b 4c 24 08          	mov    0x8(%esp),%ecx
 804e27e:	89 46 04             	mov    %eax,0x4(%esi)
 804e281:	83 ec 04             	sub    $0x4,%esp
 804e284:	89 68 04             	mov    %ebp,0x4(%eax)
 804e287:	89 54 24 10          	mov    %edx,0x10(%esp)
 804e28b:	01 c1                	add    %eax,%ecx
 804e28d:	89 4e 10             	mov    %ecx,0x10(%esi)
 804e290:	89 08                	mov    %ecx,(%eax)
 804e292:	8b 46 18             	mov    0x18(%esi),%eax
 804e295:	57                   	push   %edi
 804e296:	ff 76 08             	pushl  0x8(%esi)
 804e299:	8d 4c 02 08          	lea    0x8(%edx,%eax,1),%ecx
 804e29d:	f7 d0                	not    %eax
 804e29f:	21 c1                	and    %eax,%ecx
 804e2a1:	51                   	push   %ecx
 804e2a2:	89 4c 24 18          	mov    %ecx,0x18(%esp)
 804e2a6:	e8 75 ad ff ff       	call   8049020 
 804e2ab:	83 c4 10             	add    $0x10,%esp
 804e2ae:	f6 46 28 02          	testb  $0x2,0x28(%esi)
 804e2b2:	8b 4c 24 08          	mov    0x8(%esp),%ecx
 804e2b6:	75 14                	jne    804e2cc 
 804e2b8:	8b 46 18             	mov    0x18(%esi),%eax
 804e2bb:	8b 54 24 0c          	mov    0xc(%esp),%edx
 804e2bf:	8d 5c 05 08          	lea    0x8(%ebp,%eax,1),%ebx
 804e2c3:	f7 d0                	not    %eax
 804e2c5:	21 d8                	and    %ebx,%eax
 804e2c7:	39 46 08             	cmp    %eax,0x8(%esi)
 804e2ca:	74 34                	je     804e300 
 804e2cc:	01 cf                	add    %ecx,%edi
 804e2ce:	89 4e 08             	mov    %ecx,0x8(%esi)
 804e2d1:	80 66 28 fd          	andb   $0xfd,0x28(%esi)
 804e2d5:	89 7e 0c             	mov    %edi,0xc(%esi)
 804e2d8:	83 c4 1c             	add    $0x1c,%esp
 804e2db:	5b                   	pop    %ebx
 804e2dc:	5e                   	pop    %esi
 804e2dd:	5f                   	pop    %edi
 804e2de:	5d                   	pop    %ebp
 804e2df:	c3                   	ret    
 804e2e0:	89 c1                	mov    %eax,%ecx
 804e2e2:	eb 83                	jmp    804e267 
 804e2e4:	8d 74 26 00          	lea    0x0(%esi,%eiz,1),%esi
 804e2e8:	89 f9                	mov    %edi,%ecx
 804e2ea:	89 d0                	mov    %edx,%eax
 804e2ec:	c1 e9 03             	shr    $0x3,%ecx
 804e2ef:	8d 4c 0a 64          	lea    0x64(%edx,%ecx,1),%ecx
 804e2f3:	39 c1                	cmp    %eax,%ecx
 804e2f5:	0f 83 6c ff ff ff    	jae    804e267 
 804e2fb:	eb e3                	jmp    804e2e0 
 804e2fd:	8d 76 00             	lea    0x0(%esi),%esi
 804e300:	8b 45 04             	mov    0x4(%ebp),%eax
 804e303:	89 42 04             	mov    %eax,0x4(%edx)
 804e306:	89 ea                	mov    %ebp,%edx
 804e308:	89 f0                	mov    %esi,%eax
 804e30a:	e8 51 fe ff ff       	call   804e160 
 804e30f:	8b 4c 24 08          	mov    0x8(%esp),%ecx
 804e313:	eb b7                	jmp    804e2cc 
 804e315:	8d 74 26 00          	lea    0x0(%esi,%eiz,1),%esi
 804e319:	8d bc 27 00 00 00 00 	lea    0x0(%edi,%eiz,1),%edi
 804e320:	8b 44 24 04          	mov    0x4(%esp),%eax
 804e324:	8b 54 24 08          	mov    0x8(%esp),%edx
 804e328:	8b 40 04             	mov    0x4(%eax),%eax
 804e32b:	85 c0                	test   %eax,%eax
 804e32d:	74 1f                	je     804e34e 
 804e32f:	90                   	nop
 804e330:	39 c2                	cmp    %eax,%edx
 804e332:	76 04                	jbe    804e338 
 804e334:	3b 10                	cmp    (%eax),%edx
 804e336:	76 10                	jbe    804e348 
 804e338:	8b 40 04             	mov    0x4(%eax),%eax
 804e33b:	85 c0                	test   %eax,%eax
 804e33d:	75 f1                	jne    804e330 
 804e33f:	f3 c3                	repz ret 
 804e341:	8d b4 26 00 00 00 00 	lea    0x0(%esi,%eiz,1),%esi
 804e348:	b8 01 00 00 00       	mov    $0x1,%eax
 804e34d:	c3                   	ret    
 804e34e:	f3 c3                	repz ret 
 804e350:	55                   	push   %ebp
 804e351:	57                   	push   %edi
 804e352:	56                   	push   %esi
 804e353:	53                   	push   %ebx
 804e354:	e8 e7 bb ff ff       	call   8049f40 
 804e359:	81 c3 a7 5c 00 00    	add    $0x5ca7,%ebx
 804e35f:	83 ec 0c             	sub    $0xc,%esp
 804e362:	8b 74 24 20          	mov    0x20(%esp),%esi
 804e366:	8b 7c 24 24          	mov    0x24(%esp),%edi
 804e36a:	8b 56 04             	mov    0x4(%esi),%edx
 804e36d:	85 d2                	test   %edx,%edx
 804e36f:	75 09                	jne    804e37a 
 804e371:	eb 23                	jmp    804e396 
 804e373:	90                   	nop
 804e374:	8d 74 26 00          	lea    0x0(%esi,%eiz,1),%esi
 804e378:	89 ea                	mov    %ebp,%edx
 804e37a:	39 d7                	cmp    %edx,%edi
 804e37c:	76 06                	jbe    804e384 
 804e37e:	8b 02                	mov    (%edx),%eax
 804e380:	39 c7                	cmp    %eax,%edi
 804e382:	76 24                	jbe    804e3a8 
 804e384:	8b 6a 04             	mov    0x4(%edx),%ebp
 804e387:	89 f0                	mov    %esi,%eax
 804e389:	e8 d2 fd ff ff       	call   804e160 
 804e38e:	80 4e 28 02          	orb    $0x2,0x28(%esi)
 804e392:	85 ed                	test   %ebp,%ebp
 804e394:	75 e2                	jne    804e378 
 804e396:	85 ff                	test   %edi,%edi
 804e398:	75 22                	jne    804e3bc 
 804e39a:	83 c4 0c             	add    $0xc,%esp
 804e39d:	5b                   	pop    %ebx
 804e39e:	5e                   	pop    %esi
 804e39f:	5f                   	pop    %edi
 804e3a0:	5d                   	pop    %ebp
 804e3a1:	c3                   	ret    
 804e3a2:	8d b6 00 00 00 00    	lea    0x0(%esi),%esi
 804e3a8:	89 7e 0c             	mov    %edi,0xc(%esi)
 804e3ab:	89 7e 08             	mov    %edi,0x8(%esi)
 804e3ae:	89 46 10             	mov    %eax,0x10(%esi)
 804e3b1:	89 56 04             	mov    %edx,0x4(%esi)
 804e3b4:	83 c4 0c             	add    $0xc,%esp
 804e3b7:	5b                   	pop    %ebx
 804e3b8:	5e                   	pop    %esi
 804e3b9:	5f                   	pop    %edi
 804e3ba:	5d                   	pop    %ebp
 804e3bb:	c3                   	ret    
 804e3bc:	e8 df af ff ff       	call   80493a0 
 804e3c1:	eb 0d                	jmp    804e3d0 
 804e3c3:	90                   	nop
 804e3c4:	90                   	nop
 804e3c5:	90                   	nop
 804e3c6:	90                   	nop
 804e3c7:	90                   	nop
 804e3c8:	90                   	nop
 804e3c9:	90                   	nop
 804e3ca:	90                   	nop
 804e3cb:	90                   	nop
 804e3cc:	90                   	nop
 804e3cd:	90                   	nop
 804e3ce:	90                   	nop
 804e3cf:	90                   	nop
 804e3d0:	8b 44 24 04          	mov    0x4(%esp),%eax
 804e3d4:	8b 50 04             	mov    0x4(%eax),%edx
 804e3d7:	31 c0                	xor    %eax,%eax
 804e3d9:	85 d2                	test   %edx,%edx
 804e3db:	74 12                	je     804e3ef 
 804e3dd:	8d 76 00             	lea    0x0(%esi),%esi
 804e3e0:	8b 0a                	mov    (%edx),%ecx
 804e3e2:	29 d1                	sub    %edx,%ecx
 804e3e4:	8b 52 04             	mov    0x4(%edx),%edx
 804e3e7:	01 c8                	add    %ecx,%eax
 804e3e9:	85 d2                	test   %edx,%edx
 804e3eb:	75 f3                	jne    804e3e0 
 804e3ed:	f3 c3                	repz ret 
 804e3ef:	f3 c3                	repz ret 
 804e3f1:	8b 3c 24             	mov    (%esp),%edi
 804e3f4:	c3                   	ret    
 804e3f5:	66 90                	xchg   %ax,%ax
 804e3f7:	66 90                	xchg   %ax,%ax
 804e3f9:	66 90                	xchg   %ax,%ax
 804e3fb:	66 90                	xchg   %ax,%ax
 804e3fd:	66 90                	xchg   %ax,%ax
 804e3ff:	90                   	nop
 804e400:	55                   	push   %ebp
 804e401:	57                   	push   %edi
 804e402:	56                   	push   %esi
 804e403:	53                   	push   %ebx
 804e404:	e8 37 bb ff ff       	call   8049f40 
 804e409:	81 c3 f7 5b 00 00    	add    $0x5bf7,%ebx
 804e40f:	83 ec 18             	sub    $0x18,%esp
 804e412:	8b 6c 24 2c          	mov    0x2c(%esp),%ebp
 804e416:	55                   	push   %ebp
 804e417:	e8 04 ad ff ff       	call   8049120 
 804e41c:	8b 75 00             	mov    0x0(%ebp),%esi
 804e41f:	89 c7                	mov    %eax,%edi
 804e421:	89 2c 24             	mov    %ebp,(%esp)
 804e424:	e8 57 fa ff ff       	call   804de80 
 804e429:	83 c4 10             	add    $0x10,%esp
 804e42c:	83 e6 20             	and    $0x20,%esi
 804e42f:	85 f6                	test   %esi,%esi
 804e431:	75 1d                	jne    804e450 
 804e433:	85 c0                	test   %eax,%eax
 804e435:	74 09                	je     804e440 
 804e437:	85 ff                	test   %edi,%edi
 804e439:	b8 ff ff ff ff       	mov    $0xffffffff,%eax
 804e43e:	74 30                	je     804e470 
 804e440:	83 c4 0c             	add    $0xc,%esp
 804e443:	5b                   	pop    %ebx
 804e444:	5e                   	pop    %esi
 804e445:	5f                   	pop    %edi
 804e446:	5d                   	pop    %ebp
 804e447:	c3                   	ret    
 804e448:	90                   	nop
 804e449:	8d b4 26 00 00 00 00 	lea    0x0(%esi,%eiz,1),%esi
 804e450:	85 c0                	test   %eax,%eax
 804e452:	75 3c                	jne    804e490 
 804e454:	e8 47 ae ff ff       	call   80492a0 
 804e459:	c7 00 00 00 00 00    	movl   $0x0,(%eax)
 804e45f:	83 c4 0c             	add    $0xc,%esp
 804e462:	b8 ff ff ff ff       	mov    $0xffffffff,%eax
 804e467:	5b                   	pop    %ebx
 804e468:	5e                   	pop    %esi
 804e469:	5f                   	pop    %edi
 804e46a:	5d                   	pop    %ebp
 804e46b:	c3                   	ret    
 804e46c:	8d 74 26 00          	lea    0x0(%esi,%eiz,1),%esi
 804e470:	e8 2b ae ff ff       	call   80492a0 
 804e475:	83 38 09             	cmpl   $0x9,(%eax)
 804e478:	0f 95 c0             	setne  %al
 804e47b:	83 c4 0c             	add    $0xc,%esp
 804e47e:	0f b6 c0             	movzbl %al,%eax
 804e481:	5b                   	pop    %ebx
 804e482:	f7 d8                	neg    %eax
 804e484:	5e                   	pop    %esi
 804e485:	5f                   	pop    %edi
 804e486:	5d                   	pop    %ebp
 804e487:	c3                   	ret    
 804e488:	90                   	nop
 804e489:	8d b4 26 00 00 00 00 	lea    0x0(%esi,%eiz,1),%esi
 804e490:	83 c4 0c             	add    $0xc,%esp
 804e493:	b8 ff ff ff ff       	mov    $0xffffffff,%eax
 804e498:	5b                   	pop    %ebx
 804e499:	5e                   	pop    %esi
 804e49a:	5f                   	pop    %edi
 804e49b:	5d                   	pop    %ebp
 804e49c:	c3                   	ret    
 804e49d:	66 90                	xchg   %ax,%ax
 804e49f:	90                   	nop
 804e4a0:	55                   	push   %ebp
 804e4a1:	57                   	push   %edi
 804e4a2:	56                   	push   %esi
 804e4a3:	53                   	push   %ebx
 804e4a4:	e8 97 ba ff ff       	call   8049f40 
 804e4a9:	81 c3 57 5b 00 00    	add    $0x5b57,%ebx
 804e4af:	81 ec a8 00 00 00    	sub    $0xa8,%esp
 804e4b5:	65 a1 14 00 00 00    	mov    %gs:0x14,%eax
 804e4bb:	89 84 24 98 00 00 00 	mov    %eax,0x98(%esp)
 804e4c2:	31 c0                	xor    %eax,%eax
 804e4c4:	6a 0e                	push   $0xe
 804e4c6:	8d ab c1 b8 ff ff    	lea    -0x473f(%ebx),%ebp
 804e4cc:	e8 2f ae ff ff       	call   8049300 
 804e4d1:	83 c4 10             	add    $0x10,%esp
 804e4d4:	85 c0                	test   %eax,%eax
 804e4d6:	74 02                	je     804e4da 
 804e4d8:	89 c5                	mov    %eax,%ebp
 804e4da:	8b bb 30 03 00 00    	mov    0x330(%ebx),%edi
 804e4e0:	85 ff                	test   %edi,%edi
 804e4e2:	75 28                	jne    804e50c 
 804e4e4:	e9 86 00 00 00       	jmp    804e56f 
 804e4e9:	8d b4 26 00 00 00 00 	lea    0x0(%esi,%eiz,1),%esi
 804e4f0:	83 ec 0c             	sub    $0xc,%esp
 804e4f3:	57                   	push   %edi
 804e4f4:	e8 57 ad ff ff       	call   8049250 
 804e4f9:	8d 74 07 01          	lea    0x1(%edi,%eax,1),%esi
 804e4fd:	89 34 24             	mov    %esi,(%esp)
 804e500:	e8 4b ad ff ff       	call   8049250 
 804e505:	8d 7c 06 01          	lea    0x1(%esi,%eax,1),%edi
 804e509:	83 c4 10             	add    $0x10,%esp
 804e50c:	0f b6 37             	movzbl (%edi),%esi
 804e50f:	89 f0                	mov    %esi,%eax
 804e511:	84 c0                	test   %al,%al
 804e513:	74 2d                	je     804e542 
 804e515:	83 ec 08             	sub    $0x8,%esp
 804e518:	57                   	push   %edi
 804e519:	55                   	push   %ebp
 804e51a:	e8 91 aa ff ff       	call   8048fb0 
 804e51f:	83 c4 10             	add    $0x10,%esp
 804e522:	85 c0                	test   %eax,%eax
 804e524:	74 0c                	je     804e532 
 804e526:	89 f0                	mov    %esi,%eax
 804e528:	3c 2a                	cmp    $0x2a,%al
 804e52a:	75 c4                	jne    804e4f0 
 804e52c:	80 7f 01 00          	cmpb   $0x0,0x1(%edi)
 804e530:	75 be                	jne    804e4f0 
 804e532:	83 ec 0c             	sub    $0xc,%esp
 804e535:	57                   	push   %edi
 804e536:	e8 15 ad ff ff       	call   8049250 
 804e53b:	8d 6c 07 01          	lea    0x1(%edi,%eax,1),%ebp
 804e53f:	83 c4 10             	add    $0x10,%esp
 804e542:	80 7d 00 00          	cmpb   $0x0,0x0(%ebp)
 804e546:	75 06                	jne    804e54e 
 804e548:	8d ab c9 bb ff ff    	lea    -0x4437(%ebx),%ebp
 804e54e:	8b 8c 24 8c 00 00 00 	mov    0x8c(%esp),%ecx
 804e555:	65 33 0d 14 00 00 00 	xor    %gs:0x14,%ecx
 804e55c:	89 e8                	mov    %ebp,%eax
 804e55e:	0f 85 6e 03 00 00    	jne    804e8d2 
 804e564:	81 c4 9c 00 00 00    	add    $0x9c,%esp
 804e56a:	5b                   	pop    %ebx
 804e56b:	5e                   	pop    %esi
 804e56c:	5f                   	pop    %edi
 804e56d:	5d                   	pop    %ebp
 804e56e:	c3                   	ret    
 804e56f:	8d 83 cf bb ff ff    	lea    -0x4431(%ebx),%eax
 804e575:	83 ec 0c             	sub    $0xc,%esp
 804e578:	50                   	push   %eax
 804e579:	e8 e2 ab ff ff       	call   8049160 
 804e57e:	83 c4 10             	add    $0x10,%esp
 804e581:	85 c0                	test   %eax,%eax
 804e583:	0f 84 35 02 00 00    	je     804e7be 
 804e589:	80 38 00             	cmpb   $0x0,(%eax)
 804e58c:	0f 84 2c 02 00 00    	je     804e7be 
 804e592:	83 ec 0c             	sub    $0xc,%esp
 804e595:	50                   	push   %eax
 804e596:	89 44 24 10          	mov    %eax,0x10(%esp)
 804e59a:	e8 b1 ac ff ff       	call   8049250 
 804e59f:	83 c4 10             	add    $0x10,%esp
 804e5a2:	85 c0                	test   %eax,%eax
 804e5a4:	89 c6                	mov    %eax,%esi
 804e5a6:	8b 14 24             	mov    (%esp),%edx
 804e5a9:	0f 85 1b 03 00 00    	jne    804e8ca 
 804e5af:	b8 0e 00 00 00       	mov    $0xe,%eax
 804e5b4:	89 14 24             	mov    %edx,(%esp)
 804e5b7:	83 ec 0c             	sub    $0xc,%esp
 804e5ba:	50                   	push   %eax
 804e5bb:	e8 c0 ab ff ff       	call   8049180 
 804e5c0:	89 44 24 14          	mov    %eax,0x14(%esp)
 804e5c4:	83 c4 10             	add    $0x10,%esp
 804e5c7:	85 c0                	test   %eax,%eax
 804e5c9:	8b 14 24             	mov    (%esp),%edx
 804e5cc:	0f 84 ce 02 00 00    	je     804e8a0 
 804e5d2:	83 ec 04             	sub    $0x4,%esp
 804e5d5:	56                   	push   %esi
 804e5d6:	52                   	push   %edx
 804e5d7:	ff 74 24 10          	pushl  0x10(%esp)
 804e5db:	e8 40 aa ff ff       	call   8049020 
 804e5e0:	83 c4 10             	add    $0x10,%esp
 804e5e3:	89 34 24             	mov    %esi,(%esp)
 804e5e6:	8b 34 24             	mov    (%esp),%esi
 804e5e9:	8b 44 24 04          	mov    0x4(%esp),%eax
 804e5ed:	ba 73 00 00 00       	mov    $0x73,%edx
 804e5f2:	83 ec 08             	sub    $0x8,%esp
 804e5f5:	01 c6                	add    %eax,%esi
 804e5f7:	66 89 56 0c          	mov    %dx,0xc(%esi)
 804e5fb:	c7 06 63 68 61 72    	movl   $0x72616863,(%esi)
 804e601:	c7 46 04 73 65 74 2e 	movl   $0x2e746573,0x4(%esi)
 804e608:	c7 46 08 61 6c 69 61 	movl   $0x61696c61,0x8(%esi)
 804e60f:	68 00 00 02 00       	push   $0x20000
 804e614:	50                   	push   %eax
 804e615:	e8 a6 a9 ff ff       	call   8048fc0 
 804e61a:	83 c4 10             	add    $0x10,%esp
 804e61d:	85 c0                	test   %eax,%eax
 804e61f:	89 c2                	mov    %eax,%edx
 804e621:	0f 88 44 02 00 00    	js     804e86b 
 804e627:	8d 83 6e ad ff ff    	lea    -0x5292(%ebx),%eax
 804e62d:	83 ec 08             	sub    $0x8,%esp
 804e630:	50                   	push   %eax
 804e631:	52                   	push   %edx
 804e632:	89 54 24 10          	mov    %edx,0x10(%esp)
 804e636:	e8 b5 ab ff ff       	call   80491f0 
 804e63b:	83 c4 10             	add    $0x10,%esp
 804e63e:	85 c0                	test   %eax,%eax
 804e640:	89 c6                	mov    %eax,%esi
 804e642:	8b 14 24             	mov    (%esp),%edx
 804e645:	0f 84 14 02 00 00    	je     804e85f 
 804e64b:	8d 44 24 59          	lea    0x59(%esp),%eax
 804e64f:	c7 04 24 00 00 00 00 	movl   $0x0,(%esp)
 804e656:	89 44 24 14          	mov    %eax,0x14(%esp)
 804e65a:	8d 83 df bb ff ff    	lea    -0x4421(%ebx),%eax
 804e660:	89 44 24 1c          	mov    %eax,0x1c(%esp)
 804e664:	8d 74 26 00          	lea    0x0(%esi,%eiz,1),%esi
 804e668:	8b 46 04             	mov    0x4(%esi),%eax
 804e66b:	3b 46 08             	cmp    0x8(%esi),%eax
 804e66e:	0f 83 00 01 00 00    	jae    804e774 
 804e674:	8d 50 01             	lea    0x1(%eax),%edx
 804e677:	89 56 04             	mov    %edx,0x4(%esi)
 804e67a:	0f b6 00             	movzbl (%eax),%eax
 804e67d:	8d 50 f7             	lea    -0x9(%eax),%edx
 804e680:	83 fa 01             	cmp    $0x1,%edx
 804e683:	76 e3                	jbe    804e668 
 804e685:	83 f8 20             	cmp    $0x20,%eax
 804e688:	74 de                	je     804e668 
 804e68a:	83 f8 23             	cmp    $0x23,%eax
 804e68d:	0f 84 a0 01 00 00    	je     804e833 
 804e693:	83 ec 08             	sub    $0x8,%esp
 804e696:	56                   	push   %esi
 804e697:	50                   	push   %eax
 804e698:	e8 f3 ab ff ff       	call   8049290 
 804e69d:	ff 74 24 24          	pushl  0x24(%esp)
 804e6a1:	8d 44 24 3a          	lea    0x3a(%esp),%eax
 804e6a5:	89 44 24 1c          	mov    %eax,0x1c(%esp)
 804e6a9:	50                   	push   %eax
 804e6aa:	ff 74 24 34          	pushl  0x34(%esp)
 804e6ae:	56                   	push   %esi
 804e6af:	e8 8c ab ff ff       	call   8049240 
 804e6b4:	83 c4 20             	add    $0x20,%esp
 804e6b7:	83 f8 01             	cmp    $0x1,%eax
 804e6ba:	0f 8e c9 00 00 00    	jle    804e789 
 804e6c0:	83 ec 0c             	sub    $0xc,%esp
 804e6c3:	ff 74 24 14          	pushl  0x14(%esp)
 804e6c7:	e8 84 ab ff ff       	call   8049250 
 804e6cc:	5a                   	pop    %edx
 804e6cd:	89 44 24 18          	mov    %eax,0x18(%esp)
 804e6d1:	ff 74 24 20          	pushl  0x20(%esp)
 804e6d5:	e8 76 ab ff ff       	call   8049250 
 804e6da:	83 c4 10             	add    $0x10,%esp
 804e6dd:	8b 0c 24             	mov    (%esp),%ecx
 804e6e0:	89 44 24 10          	mov    %eax,0x10(%esp)
 804e6e4:	85 c9                	test   %ecx,%ecx
 804e6e6:	0f 85 8a 01 00 00    	jne    804e876 
 804e6ec:	8b 4c 24 0c          	mov    0xc(%esp),%ecx
 804e6f0:	83 ec 0c             	sub    $0xc,%esp
 804e6f3:	01 c1                	add    %eax,%ecx
 804e6f5:	89 c8                	mov    %ecx,%eax
 804e6f7:	8d 49 02             	lea    0x2(%ecx),%ecx
 804e6fa:	83 c0 03             	add    $0x3,%eax
 804e6fd:	89 4c 24 0c          	mov    %ecx,0xc(%esp)
 804e701:	50                   	push   %eax
 804e702:	e8 79 aa ff ff       	call   8049180 
 804e707:	83 c4 10             	add    $0x10,%esp
 804e70a:	89 c2                	mov    %eax,%edx
 804e70c:	85 d2                	test   %edx,%edx
 804e70e:	0f 84 97 01 00 00    	je     804e8ab 
 804e714:	8b 3c 24             	mov    (%esp),%edi
 804e717:	2b 7c 24 10          	sub    0x10(%esp),%edi
 804e71b:	83 ec 04             	sub    $0x4,%esp
 804e71e:	89 54 24 1c          	mov    %edx,0x1c(%esp)
 804e722:	89 f9                	mov    %edi,%ecx
 804e724:	2b 4c 24 10          	sub    0x10(%esp),%ecx
 804e728:	8d 4c 0a fe          	lea    -0x2(%edx,%ecx,1),%ecx
 804e72c:	8b 54 24 10          	mov    0x10(%esp),%edx
 804e730:	8d 42 01             	lea    0x1(%edx),%eax
 804e733:	50                   	push   %eax
 804e734:	ff 74 24 10          	pushl  0x10(%esp)
 804e738:	51                   	push   %ecx
 804e739:	e8 e2 a8 ff ff       	call   8049020 
 804e73e:	8b 54 24 28          	mov    0x28(%esp),%edx
 804e742:	8b 44 24 20          	mov    0x20(%esp),%eax
 804e746:	8d 4c 3a ff          	lea    -0x1(%edx,%edi,1),%ecx
 804e74a:	89 54 24 18          	mov    %edx,0x18(%esp)
 804e74e:	83 c0 01             	add    $0x1,%eax
 804e751:	83 c4 0c             	add    $0xc,%esp
 804e754:	50                   	push   %eax
 804e755:	ff 74 24 1c          	pushl  0x1c(%esp)
 804e759:	51                   	push   %ecx
 804e75a:	e8 c1 a8 ff ff       	call   8049020 
 804e75f:	83 c4 10             	add    $0x10,%esp
 804e762:	8b 46 04             	mov    0x4(%esi),%eax
 804e765:	3b 46 08             	cmp    0x8(%esi),%eax
 804e768:	8b 54 24 08          	mov    0x8(%esp),%edx
 804e76c:	89 d7                	mov    %edx,%edi
 804e76e:	0f 82 00 ff ff ff    	jb     804e674 
 804e774:	83 ec 0c             	sub    $0xc,%esp
 804e777:	56                   	push   %esi
 804e778:	e8 73 ab ff ff       	call   80492f0 
 804e77d:	83 c4 10             	add    $0x10,%esp
 804e780:	83 f8 ff             	cmp    $0xffffffff,%eax
 804e783:	0f 85 f4 fe ff ff    	jne    804e67d 
 804e789:	83 ec 0c             	sub    $0xc,%esp
 804e78c:	56                   	push   %esi
 804e78d:	e8 ee f6 ff ff       	call   804de80 
 804e792:	83 c4 10             	add    $0x10,%esp
 804e795:	8b 04 24             	mov    (%esp),%eax
 804e798:	85 c0                	test   %eax,%eax
 804e79a:	0f 84 cb 00 00 00    	je     804e86b 
 804e7a0:	c6 04 07 00          	movb   $0x0,(%edi,%eax,1)
 804e7a4:	83 ec 0c             	sub    $0xc,%esp
 804e7a7:	ff 74 24 10          	pushl  0x10(%esp)
 804e7ab:	e8 60 a8 ff ff       	call   8049010 
 804e7b0:	83 c4 10             	add    $0x10,%esp
 804e7b3:	89 bb 30 03 00 00    	mov    %edi,0x330(%ebx)
 804e7b9:	e9 4e fd ff ff       	jmp    804e50c 
 804e7be:	8d 93 c0 bb ff ff    	lea    -0x4440(%ebx),%edx
 804e7c4:	b8 07 00 00 00       	mov    $0x7,%eax
 804e7c9:	be 08 00 00 00       	mov    $0x8,%esi
 804e7ce:	80 3c 02 2f          	cmpb   $0x2f,(%edx,%eax,1)
 804e7d2:	74 75                	je     804e849 
 804e7d4:	8d 46 01             	lea    0x1(%esi),%eax
 804e7d7:	89 54 24 08          	mov    %edx,0x8(%esp)
 804e7db:	83 ec 0c             	sub    $0xc,%esp
 804e7de:	89 44 24 0c          	mov    %eax,0xc(%esp)
 804e7e2:	8d 46 0f             	lea    0xf(%esi),%eax
 804e7e5:	50                   	push   %eax
 804e7e6:	e8 95 a9 ff ff       	call   8049180 
 804e7eb:	89 44 24 14          	mov    %eax,0x14(%esp)
 804e7ef:	83 c4 10             	add    $0x10,%esp
 804e7f2:	85 c0                	test   %eax,%eax
 804e7f4:	8b 54 24 08          	mov    0x8(%esp),%edx
 804e7f8:	0f 84 a2 00 00 00    	je     804e8a0 
 804e7fe:	83 ec 04             	sub    $0x4,%esp
 804e801:	56                   	push   %esi
 804e802:	52                   	push   %edx
 804e803:	ff 74 24 10          	pushl  0x10(%esp)
 804e807:	e8 14 a8 ff ff       	call   8049020 
 804e80c:	8b 44 24 14          	mov    0x14(%esp),%eax
 804e810:	83 c4 10             	add    $0x10,%esp
 804e813:	c6 04 30 2f          	movb   $0x2f,(%eax,%esi,1)
 804e817:	e9 ca fd ff ff       	jmp    804e5e6 
 804e81c:	8d 74 26 00          	lea    0x0(%esi,%eiz,1),%esi
 804e820:	8d 50 01             	lea    0x1(%eax),%edx
 804e823:	89 56 04             	mov    %edx,0x4(%esi)
 804e826:	0f b6 00             	movzbl (%eax),%eax
 804e829:	83 f8 ff             	cmp    $0xffffffff,%eax
 804e82c:	74 23                	je     804e851 
 804e82e:	83 f8 0a             	cmp    $0xa,%eax
 804e831:	74 1e                	je     804e851 
 804e833:	8b 46 04             	mov    0x4(%esi),%eax
 804e836:	3b 46 08             	cmp    0x8(%esi),%eax
 804e839:	72 e5                	jb     804e820 
 804e83b:	83 ec 0c             	sub    $0xc,%esp
 804e83e:	56                   	push   %esi
 804e83f:	e8 ac aa ff ff       	call   80492f0 
 804e844:	83 c4 10             	add    $0x10,%esp
 804e847:	eb e0                	jmp    804e829 
 804e849:	8d 46 0e             	lea    0xe(%esi),%eax
 804e84c:	e9 63 fd ff ff       	jmp    804e5b4 
 804e851:	83 f8 ff             	cmp    $0xffffffff,%eax
 804e854:	0f 85 0e fe ff ff    	jne    804e668 
 804e85a:	e9 2a ff ff ff       	jmp    804e789 
 804e85f:	83 ec 0c             	sub    $0xc,%esp
 804e862:	52                   	push   %edx
 804e863:	e8 58 ab ff ff       	call   80493c0 
 804e868:	83 c4 10             	add    $0x10,%esp
 804e86b:	8d bb c1 b8 ff ff    	lea    -0x473f(%ebx),%edi
 804e871:	e9 2e ff ff ff       	jmp    804e7a4 
 804e876:	8b 44 24 0c          	mov    0xc(%esp),%eax
 804e87a:	03 44 24 10          	add    0x10(%esp),%eax
 804e87e:	83 ec 08             	sub    $0x8,%esp
 804e881:	03 44 24 08          	add    0x8(%esp),%eax
 804e885:	8d 48 02             	lea    0x2(%eax),%ecx
 804e888:	83 c0 03             	add    $0x3,%eax
 804e88b:	89 4c 24 08          	mov    %ecx,0x8(%esp)
 804e88f:	50                   	push   %eax
 804e890:	57                   	push   %edi
 804e891:	e8 da a8 ff ff       	call   8049170 
 804e896:	83 c4 10             	add    $0x10,%esp
 804e899:	89 c2                	mov    %eax,%edx
 804e89b:	e9 6c fe ff ff       	jmp    804e70c 
 804e8a0:	8d bb c1 b8 ff ff    	lea    -0x473f(%ebx),%edi
 804e8a6:	e9 08 ff ff ff       	jmp    804e7b3 
 804e8ab:	83 ec 0c             	sub    $0xc,%esp
 804e8ae:	57                   	push   %edi
 804e8af:	8d bb c1 b8 ff ff    	lea    -0x473f(%ebx),%edi
 804e8b5:	e8 56 a7 ff ff       	call   8049010 
 804e8ba:	89 34 24             	mov    %esi,(%esp)
 804e8bd:	e8 be f5 ff ff       	call   804de80 
 804e8c2:	83 c4 10             	add    $0x10,%esp
 804e8c5:	e9 da fe ff ff       	jmp    804e7a4 
 804e8ca:	8d 40 ff             	lea    -0x1(%eax),%eax
 804e8cd:	e9 fc fe ff ff       	jmp    804e7ce 
 804e8d2:	e8 49 03 00 00       	call   804ec20 
 804e8d7:	66 90                	xchg   %ax,%ax
 804e8d9:	66 90                	xchg   %ax,%ax
 804e8db:	66 90                	xchg   %ax,%ax
 804e8dd:	66 90                	xchg   %ax,%ax
 804e8df:	90                   	nop
 804e8e0:	55                   	push   %ebp
 804e8e1:	57                   	push   %edi
 804e8e2:	56                   	push   %esi
 804e8e3:	53                   	push   %ebx
 804e8e4:	83 ec 1c             	sub    $0x1c,%esp
 804e8e7:	8b 74 24 3c          	mov    0x3c(%esp),%esi
 804e8eb:	8b 5c 24 30          	mov    0x30(%esp),%ebx
 804e8ef:	8b 4c 24 34          	mov    0x34(%esp),%ecx
 804e8f3:	8b 7c 24 38          	mov    0x38(%esp),%edi
 804e8f7:	85 f6                	test   %esi,%esi
 804e8f9:	89 5c 24 08          	mov    %ebx,0x8(%esp)
 804e8fd:	89 ca                	mov    %ecx,%edx
 804e8ff:	89 f8                	mov    %edi,%eax
 804e901:	75 3d                	jne    804e940 
 804e903:	39 cf                	cmp    %ecx,%edi
 804e905:	0f 87 c5 00 00 00    	ja     804e9d0 
 804e90b:	85 ff                	test   %edi,%edi
 804e90d:	89 fd                	mov    %edi,%ebp
 804e90f:	75 0b                	jne    804e91c 
 804e911:	b8 01 00 00 00       	mov    $0x1,%eax
 804e916:	31 d2                	xor    %edx,%edx
 804e918:	f7 f7                	div    %edi
 804e91a:	89 c5                	mov    %eax,%ebp
 804e91c:	89 c8                	mov    %ecx,%eax
 804e91e:	31 d2                	xor    %edx,%edx
 804e920:	f7 f5                	div    %ebp
 804e922:	89 c1                	mov    %eax,%ecx
 804e924:	89 d8                	mov    %ebx,%eax
 804e926:	89 cf                	mov    %ecx,%edi
 804e928:	f7 f5                	div    %ebp
 804e92a:	89 c3                	mov    %eax,%ebx
 804e92c:	89 d8                	mov    %ebx,%eax
 804e92e:	89 fa                	mov    %edi,%edx
 804e930:	83 c4 1c             	add    $0x1c,%esp
 804e933:	5b                   	pop    %ebx
 804e934:	5e                   	pop    %esi
 804e935:	5f                   	pop    %edi
 804e936:	5d                   	pop    %ebp
 804e937:	c3                   	ret    
 804e938:	90                   	nop
 804e939:	8d b4 26 00 00 00 00 	lea    0x0(%esi,%eiz,1),%esi
 804e940:	39 ce                	cmp    %ecx,%esi
 804e942:	77 74                	ja     804e9b8 
 804e944:	0f bd fe             	bsr    %esi,%edi
 804e947:	83 f7 1f             	xor    $0x1f,%edi
 804e94a:	0f 84 98 00 00 00    	je     804e9e8 
 804e950:	bb 20 00 00 00       	mov    $0x20,%ebx
 804e955:	89 f9                	mov    %edi,%ecx
 804e957:	89 c5                	mov    %eax,%ebp
 804e959:	29 fb                	sub    %edi,%ebx
 804e95b:	d3 e6                	shl    %cl,%esi
 804e95d:	89 d9                	mov    %ebx,%ecx
 804e95f:	d3 ed                	shr    %cl,%ebp
 804e961:	89 f9                	mov    %edi,%ecx
 804e963:	d3 e0                	shl    %cl,%eax
 804e965:	09 ee                	or     %ebp,%esi
 804e967:	89 d9                	mov    %ebx,%ecx
 804e969:	89 44 24 0c          	mov    %eax,0xc(%esp)
 804e96d:	89 d5                	mov    %edx,%ebp
 804e96f:	8b 44 24 08          	mov    0x8(%esp),%eax
 804e973:	d3 ed                	shr    %cl,%ebp
 804e975:	89 f9                	mov    %edi,%ecx
 804e977:	d3 e2                	shl    %cl,%edx
 804e979:	89 d9                	mov    %ebx,%ecx
 804e97b:	d3 e8                	shr    %cl,%eax
 804e97d:	09 c2                	or     %eax,%edx
 804e97f:	89 d0                	mov    %edx,%eax
 804e981:	89 ea                	mov    %ebp,%edx
 804e983:	f7 f6                	div    %esi
 804e985:	89 d5                	mov    %edx,%ebp
 804e987:	89 c3                	mov    %eax,%ebx
 804e989:	f7 64 24 0c          	mull   0xc(%esp)
 804e98d:	39 d5                	cmp    %edx,%ebp
 804e98f:	72 10                	jb     804e9a1 
 804e991:	8b 74 24 08          	mov    0x8(%esp),%esi
 804e995:	89 f9                	mov    %edi,%ecx
 804e997:	d3 e6                	shl    %cl,%esi
 804e999:	39 c6                	cmp    %eax,%esi
 804e99b:	73 07                	jae    804e9a4 
 804e99d:	39 d5                	cmp    %edx,%ebp
 804e99f:	75 03                	jne    804e9a4 
 804e9a1:	83 eb 01             	sub    $0x1,%ebx
 804e9a4:	31 ff                	xor    %edi,%edi
 804e9a6:	89 d8                	mov    %ebx,%eax
 804e9a8:	89 fa                	mov    %edi,%edx
 804e9aa:	83 c4 1c             	add    $0x1c,%esp
 804e9ad:	5b                   	pop    %ebx
 804e9ae:	5e                   	pop    %esi
 804e9af:	5f                   	pop    %edi
 804e9b0:	5d                   	pop    %ebp
 804e9b1:	c3                   	ret    
 804e9b2:	8d b6 00 00 00 00    	lea    0x0(%esi),%esi
 804e9b8:	31 ff                	xor    %edi,%edi
 804e9ba:	31 db                	xor    %ebx,%ebx
 804e9bc:	89 d8                	mov    %ebx,%eax
 804e9be:	89 fa                	mov    %edi,%edx
 804e9c0:	83 c4 1c             	add    $0x1c,%esp
 804e9c3:	5b                   	pop    %ebx
 804e9c4:	5e                   	pop    %esi
 804e9c5:	5f                   	pop    %edi
 804e9c6:	5d                   	pop    %ebp
 804e9c7:	c3                   	ret    
 804e9c8:	90                   	nop
 804e9c9:	8d b4 26 00 00 00 00 	lea    0x0(%esi,%eiz,1),%esi
 804e9d0:	89 d8                	mov    %ebx,%eax
 804e9d2:	f7 f7                	div    %edi
 804e9d4:	31 ff                	xor    %edi,%edi
 804e9d6:	89 c3                	mov    %eax,%ebx
 804e9d8:	89 d8                	mov    %ebx,%eax
 804e9da:	89 fa                	mov    %edi,%edx
 804e9dc:	83 c4 1c             	add    $0x1c,%esp
 804e9df:	5b                   	pop    %ebx
 804e9e0:	5e                   	pop    %esi
 804e9e1:	5f                   	pop    %edi
 804e9e2:	5d                   	pop    %ebp
 804e9e3:	c3                   	ret    
 804e9e4:	8d 74 26 00          	lea    0x0(%esi,%eiz,1),%esi
 804e9e8:	39 ce                	cmp    %ecx,%esi
 804e9ea:	72 0c                	jb     804e9f8 
 804e9ec:	31 db                	xor    %ebx,%ebx
 804e9ee:	3b 44 24 08          	cmp    0x8(%esp),%eax
 804e9f2:	0f 87 34 ff ff ff    	ja     804e92c 
 804e9f8:	bb 01 00 00 00       	mov    $0x1,%ebx
 804e9fd:	e9 2a ff ff ff       	jmp    804e92c 
 804ea02:	66 90                	xchg   %ax,%ax
 804ea04:	66 90                	xchg   %ax,%ax
 804ea06:	66 90                	xchg   %ax,%ax
 804ea08:	66 90                	xchg   %ax,%ax
 804ea0a:	66 90                	xchg   %ax,%ax
 804ea0c:	66 90                	xchg   %ax,%ax
 804ea0e:	66 90                	xchg   %ax,%ax
 804ea10:	55                   	push   %ebp
 804ea11:	57                   	push   %edi
 804ea12:	56                   	push   %esi
 804ea13:	53                   	push   %ebx
 804ea14:	83 ec 1c             	sub    $0x1c,%esp
 804ea17:	8b 54 24 3c          	mov    0x3c(%esp),%edx
 804ea1b:	8b 4c 24 30          	mov    0x30(%esp),%ecx
 804ea1f:	8b 74 24 34          	mov    0x34(%esp),%esi
 804ea23:	8b 7c 24 38          	mov    0x38(%esp),%edi
 804ea27:	85 d2                	test   %edx,%edx
 804ea29:	89 4c 24 0c          	mov    %ecx,0xc(%esp)
 804ea2d:	89 4c 24 08          	mov    %ecx,0x8(%esp)
 804ea31:	89 f3                	mov    %esi,%ebx
 804ea33:	89 3c 24             	mov    %edi,(%esp)
 804ea36:	89 74 24 04          	mov    %esi,0x4(%esp)
 804ea3a:	75 1c                	jne    804ea58 
 804ea3c:	39 f7                	cmp    %esi,%edi
 804ea3e:	76 50                	jbe    804ea90 
 804ea40:	89 c8                	mov    %ecx,%eax
 804ea42:	89 f2                	mov    %esi,%edx
 804ea44:	f7 f7                	div    %edi
 804ea46:	89 d0                	mov    %edx,%eax
 804ea48:	31 d2                	xor    %edx,%edx
 804ea4a:	83 c4 1c             	add    $0x1c,%esp
 804ea4d:	5b                   	pop    %ebx
 804ea4e:	5e                   	pop    %esi
 804ea4f:	5f                   	pop    %edi
 804ea50:	5d                   	pop    %ebp
 804ea51:	c3                   	ret    
 804ea52:	8d b6 00 00 00 00    	lea    0x0(%esi),%esi
 804ea58:	39 f2                	cmp    %esi,%edx
 804ea5a:	89 d0                	mov    %edx,%eax
 804ea5c:	77 52                	ja     804eab0 
 804ea5e:	0f bd ea             	bsr    %edx,%ebp
 804ea61:	83 f5 1f             	xor    $0x1f,%ebp
 804ea64:	75 5a                	jne    804eac0 
 804ea66:	3b 54 24 04          	cmp    0x4(%esp),%edx
 804ea6a:	0f 82 e0 00 00 00    	jb     804eb50 
 804ea70:	39 0c 24             	cmp    %ecx,(%esp)
 804ea73:	0f 86 d7 00 00 00    	jbe    804eb50 
 804ea79:	8b 44 24 08          	mov    0x8(%esp),%eax
 804ea7d:	8b 54 24 04          	mov    0x4(%esp),%edx
 804ea81:	83 c4 1c             	add    $0x1c,%esp
 804ea84:	5b                   	pop    %ebx
 804ea85:	5e                   	pop    %esi
 804ea86:	5f                   	pop    %edi
 804ea87:	5d                   	pop    %ebp
 804ea88:	c3                   	ret    
 804ea89:	8d b4 26 00 00 00 00 	lea    0x0(%esi,%eiz,1),%esi
 804ea90:	85 ff                	test   %edi,%edi
 804ea92:	89 fd                	mov    %edi,%ebp
 804ea94:	75 0b                	jne    804eaa1 
 804ea96:	b8 01 00 00 00       	mov    $0x1,%eax
 804ea9b:	31 d2                	xor    %edx,%edx
 804ea9d:	f7 f7                	div    %edi
 804ea9f:	89 c5                	mov    %eax,%ebp
 804eaa1:	89 f0                	mov    %esi,%eax
 804eaa3:	31 d2                	xor    %edx,%edx
 804eaa5:	f7 f5                	div    %ebp
 804eaa7:	89 c8                	mov    %ecx,%eax
 804eaa9:	f7 f5                	div    %ebp
 804eaab:	89 d0                	mov    %edx,%eax
 804eaad:	eb 99                	jmp    804ea48 
 804eaaf:	90                   	nop
 804eab0:	89 c8                	mov    %ecx,%eax
 804eab2:	89 f2                	mov    %esi,%edx
 804eab4:	83 c4 1c             	add    $0x1c,%esp
 804eab7:	5b                   	pop    %ebx
 804eab8:	5e                   	pop    %esi
 804eab9:	5f                   	pop    %edi
 804eaba:	5d                   	pop    %ebp
 804eabb:	c3                   	ret    
 804eabc:	8d 74 26 00          	lea    0x0(%esi,%eiz,1),%esi
 804eac0:	8b 34 24             	mov    (%esp),%esi
 804eac3:	bf 20 00 00 00       	mov    $0x20,%edi
 804eac8:	89 e9                	mov    %ebp,%ecx
 804eaca:	29 ef                	sub    %ebp,%edi
 804eacc:	d3 e0                	shl    %cl,%eax
 804eace:	89 f9                	mov    %edi,%ecx
 804ead0:	89 f2                	mov    %esi,%edx
 804ead2:	d3 ea                	shr    %cl,%edx
 804ead4:	89 e9                	mov    %ebp,%ecx
 804ead6:	09 c2                	or     %eax,%edx
 804ead8:	89 d8                	mov    %ebx,%eax
 804eada:	89 14 24             	mov    %edx,(%esp)
 804eadd:	89 f2                	mov    %esi,%edx
 804eadf:	d3 e2                	shl    %cl,%edx
 804eae1:	89 f9                	mov    %edi,%ecx
 804eae3:	89 54 24 04          	mov    %edx,0x4(%esp)
 804eae7:	8b 54 24 0c          	mov    0xc(%esp),%edx
 804eaeb:	d3 e8                	shr    %cl,%eax
 804eaed:	89 e9                	mov    %ebp,%ecx
 804eaef:	89 c6                	mov    %eax,%esi
 804eaf1:	d3 e3                	shl    %cl,%ebx
 804eaf3:	89 f9                	mov    %edi,%ecx
 804eaf5:	89 d0                	mov    %edx,%eax
 804eaf7:	d3 e8                	shr    %cl,%eax
 804eaf9:	89 e9                	mov    %ebp,%ecx
 804eafb:	09 d8                	or     %ebx,%eax
 804eafd:	89 d3                	mov    %edx,%ebx
 804eaff:	89 f2                	mov    %esi,%edx
 804eb01:	f7 34 24             	divl   (%esp)
 804eb04:	89 d6                	mov    %edx,%esi
 804eb06:	d3 e3                	shl    %cl,%ebx
 804eb08:	f7 64 24 04          	mull   0x4(%esp)
 804eb0c:	39 d6                	cmp    %edx,%esi
 804eb0e:	89 5c 24 08          	mov    %ebx,0x8(%esp)
 804eb12:	89 d1                	mov    %edx,%ecx
 804eb14:	89 c3                	mov    %eax,%ebx
 804eb16:	72 08                	jb     804eb20 
 804eb18:	75 11                	jne    804eb2b 
 804eb1a:	39 44 24 08          	cmp    %eax,0x8(%esp)
 804eb1e:	73 0b                	jae    804eb2b 
 804eb20:	2b 44 24 04          	sub    0x4(%esp),%eax
 804eb24:	1b 14 24             	sbb    (%esp),%edx
 804eb27:	89 d1                	mov    %edx,%ecx
 804eb29:	89 c3                	mov    %eax,%ebx
 804eb2b:	8b 54 24 08          	mov    0x8(%esp),%edx
 804eb2f:	29 da                	sub    %ebx,%edx
 804eb31:	19 ce                	sbb    %ecx,%esi
 804eb33:	89 f9                	mov    %edi,%ecx
 804eb35:	89 f0                	mov    %esi,%eax
 804eb37:	d3 e0                	shl    %cl,%eax
 804eb39:	89 e9                	mov    %ebp,%ecx
 804eb3b:	d3 ea                	shr    %cl,%edx
 804eb3d:	89 e9                	mov    %ebp,%ecx
 804eb3f:	d3 ee                	shr    %cl,%esi
 804eb41:	09 d0                	or     %edx,%eax
 804eb43:	89 f2                	mov    %esi,%edx
 804eb45:	83 c4 1c             	add    $0x1c,%esp
 804eb48:	5b                   	pop    %ebx
 804eb49:	5e                   	pop    %esi
 804eb4a:	5f                   	pop    %edi
 804eb4b:	5d                   	pop    %ebp
 804eb4c:	c3                   	ret    
 804eb4d:	8d 76 00             	lea    0x0(%esi),%esi
 804eb50:	29 f9                	sub    %edi,%ecx
 804eb52:	19 d6                	sbb    %edx,%esi
 804eb54:	89 74 24 04          	mov    %esi,0x4(%esp)
 804eb58:	89 4c 24 08          	mov    %ecx,0x8(%esp)
 804eb5c:	e9 18 ff ff ff       	jmp    804ea79 
 804eb61:	66 90                	xchg   %ax,%ax
 804eb63:	66 90                	xchg   %ax,%ax
 804eb65:	66 90                	xchg   %ax,%ax
 804eb67:	66 90                	xchg   %ax,%ax
 804eb69:	66 90                	xchg   %ax,%ax
 804eb6b:	66 90                	xchg   %ax,%ax
 804eb6d:	66 90                	xchg   %ax,%ax
 804eb6f:	90                   	nop
 804eb70:	55                   	push   %ebp
 804eb71:	57                   	push   %edi
 804eb72:	56                   	push   %esi
 804eb73:	53                   	push   %ebx
 804eb74:	e8 c7 b3 ff ff       	call   8049f40 
 804eb79:	81 c3 87 54 00 00    	add    $0x5487,%ebx
 804eb7f:	83 ec 0c             	sub    $0xc,%esp
 804eb82:	8b 6c 24 20          	mov    0x20(%esp),%ebp
 804eb86:	8d b3 f8 fd ff ff    	lea    -0x208(%ebx),%esi
 804eb8c:	e8 e3 a3 ff ff       	call   8048f74 
 804eb91:	8d 83 f4 fd ff ff    	lea    -0x20c(%ebx),%eax
 804eb97:	29 c6                	sub    %eax,%esi
 804eb99:	c1 fe 02             	sar    $0x2,%esi
 804eb9c:	85 f6                	test   %esi,%esi
 804eb9e:	74 25                	je     804ebc5 
 804eba0:	31 ff                	xor    %edi,%edi
 804eba2:	8d b6 00 00 00 00    	lea    0x0(%esi),%esi
 804eba8:	83 ec 04             	sub    $0x4,%esp
 804ebab:	ff 74 24 2c          	pushl  0x2c(%esp)
 804ebaf:	ff 74 24 2c          	pushl  0x2c(%esp)
 804ebb3:	55                   	push   %ebp
 804ebb4:	ff 94 bb f4 fd ff ff 	call   *-0x20c(%ebx,%edi,4)
 804ebbb:	83 c7 01             	add    $0x1,%edi
 804ebbe:	83 c4 10             	add    $0x10,%esp
 804ebc1:	39 f7                	cmp    %esi,%edi
 804ebc3:	75 e3                	jne    804eba8 
 804ebc5:	83 c4 0c             	add    $0xc,%esp
 804ebc8:	5b                   	pop    %ebx
 804ebc9:	5e                   	pop    %esi
 804ebca:	5f                   	pop    %edi
 804ebcb:	5d                   	pop    %ebp
 804ebcc:	c3                   	ret    
 804ebcd:	8d 76 00             	lea    0x0(%esi),%esi
 804ebd0:	f3 c3                	repz ret 
 804ebd2:	66 90                	xchg   %ax,%ax
 804ebd4:	66 90                	xchg   %ax,%ax
 804ebd6:	66 90                	xchg   %ax,%ax
 804ebd8:	66 90                	xchg   %ax,%ax
 804ebda:	66 90                	xchg   %ax,%ax
 804ebdc:	66 90                	xchg   %ax,%ax
 804ebde:	66 90                	xchg   %ax,%ax
 804ebe0:	53                   	push   %ebx
 804ebe1:	e8 5a b3 ff ff       	call   8049f40 
 804ebe6:	81 c3 1a 54 00 00    	add    $0x541a,%ebx
 804ebec:	83 ec 08             	sub    $0x8,%esp
 804ebef:	8d 83 24 01 00 00    	lea    0x124(%ebx),%eax
 804ebf5:	85 c0                	test   %eax,%eax
 804ebf7:	74 17                	je     804ec10 
 804ebf9:	8b 00                	mov    (%eax),%eax
 804ebfb:	83 ec 04             	sub    $0x4,%esp
 804ebfe:	50                   	push   %eax
 804ebff:	6a 00                	push   $0x0
 804ec01:	ff 74 24 1c          	pushl  0x1c(%esp)
 804ec05:	e8 36 a5 ff ff       	call   8049140 
 804ec0a:	83 c4 18             	add    $0x18,%esp
 804ec0d:	5b                   	pop    %ebx
 804ec0e:	c3                   	ret    
 804ec0f:	90                   	nop
 804ec10:	31 c0                	xor    %eax,%eax
 804ec12:	eb e7                	jmp    804ebfb 
 804ec14:	66 90                	xchg   %ax,%ax
 804ec16:	66 90                	xchg   %ax,%ax
 804ec18:	66 90                	xchg   %ax,%ax
 804ec1a:	66 90                	xchg   %ax,%ax
 804ec1c:	66 90                	xchg   %ax,%ax
 804ec1e:	66 90                	xchg   %ax,%ax
 804ec20:	53                   	push   %ebx
 804ec21:	e8 1a b3 ff ff       	call   8049f40 
 804ec26:	81 c3 da 53 00 00    	add    $0x53da,%ebx
 804ec2c:	83 ec 08             	sub    $0x8,%esp
 804ec2f:	e8 5c a4 ff ff       	call   8049090 
